(dp0
S'METTS MARK'
p1
(dp2
S'to_messages'
p3
F-0.36251900560134037
sS'deferral_payments'
p4
F-0.2800859438637654
sS'expenses'
p5
F1.0967206697108254
sS'salary_total_stock_value_plus'
p6
F-0.07044776183397787
sS'poi'
p7
I00
sS'exercised_stock_options_total_stock_value_divide'
p8
F0.02658115667425282
sS'long_term_incentive'
p9
F-0.7510341545353315
sS'total_payments_total_stock_value_plus'
p10
F-0.6408142032353695
sS'from_poi_to_this_person'
p11
F-0.2881248988750443
sS'deferred_income'
p12
F0.48155378274966965
sS'from_messages_from_this_person_to_poi_divide'
p13
F0.02840655817317631
sS'restricted_stock_deferred'
p14
F-0.0339594496849806
sS'shared_receipt_with_poi'
p15
F-0.3093450130906781
sS'loan_advances'
p16
F-0.05901100165976806
sS'from_messages'
p17
F-0.2486397870027934
sS'other'
p18
F-0.4242122901615819
sS'expenses_restricted_stock_deferred_plus'
p19
F0.7734901598147772
sS'from_poi_to_this_person_shared_receipt_with_poi_times'
p20
F-0.3958868916738399
sS'director_fees'
p21
F-0.18622486001898897
sS'bonus'
p22
F-0.40929493628852615
sS'from_messages_from_this_person_to_poi_minus'
p23
F0.12098275391005524
sS'total_stock_value'
p24
F-0.5558268237104221
sS'from_this_person_to_poi'
p25
F-0.34360120203605904
sS'expenses_restricted_stock_deferred_times'
p26
F0.015847707673174668
sS'restricted_stock'
p27
F-0.36526069102523484
sS'salary'
p28
F0.4398433402370285
sS'total_payments'
p29
F-0.41913304923067196
sS'exercised_stock_options'
p30
F-0.5348578514122511
ssS'BAXTER JOHN C'
p31
(dp32
g3
F-0.7574179780686766
sg4
F1.8579918863840605
sg5
F-0.927672306505944
sg6
F0.378540834834839
sg7
I00
sg8
F-0.9837819931115774
sg9
F1.5362030822533277
sg10
F1.4577343672315686
sg11
F-0.7742755461867982
sg12
F-0.8917987282171849
sg13
F0.06175664536362788
sg14
F-0.0339594496849806
sg15
F-0.8614753592066567
sg16
F-0.05901100165976806
sg17
F-0.27649512737893417
sg18
F4.4058321953919934
sg19
F-0.6998869423942612
sg20
F-0.03616307256388849
sg21
F-0.18622486001898897
sg22
F-0.007623377203610937
sg23
F0.09582903695701411
sg24
F0.631782283417623
sg25
F-0.3517129634473594
sg26
F0.07366596053489254
sg27
F1.618360658556289
sg28
F-0.008561850034095665
sg29
F1.586071981176355
sg30
F0.33828171974229054
ssS'ELLIOTT STEVEN'
p33
(dp34
g3
F-0.7574179780686766
sg4
F-0.2800859438637654
sg5
F0.7131045468154178
sg6
F-0.17030402667511652
sg7
I00
sg8
F-0.7558553857687027
sg9
F-0.7510341545353315
sg10
F-0.4119929755820408
sg11
F-0.7742755461867982
sg12
F0.08449726019664207
sg13
F0.06175664536362788
sg14
F-0.0339594496849806
sg15
F-0.8614753592066567
sg16
F-0.05901100165976806
sg17
F-0.27649512737893417
sg18
F-0.4038261156859736
sg19
F0.49428981771095254
sg20
F-0.03616307256388849
sg21
F-0.18622486001898897
sg22
F-0.5766580859072409
sg23
F0.09582903695701411
sg24
F0.1651096424295373
sg25
F-0.3517129634473594
sg26
F0.02680408534093807
sg27
F0.3456376078367633
sg28
F-0.4454940542136304
sg29
F-0.7919319211775552
sg30
F0.10430459747786713
ssS'CORDES WILLIAM R'
p35
(dp36
g3
F-0.3835607104539989
sg4
F-0.2800859438637654
sg5
F-1.2005179644997563
sg6
F-1.047407757348364
sg7
I00
sg8
F-0.13183294309417293
sg9
F-0.7510341545353315
sg10
F-0.9116360645528518
sg11
F-0.646341165315284
sg12
F0.48155378274966965
sg13
F0.04427212861074267
sg14
F-0.0339594496849806
sg15
F-0.8158577522626015
sg16
F-0.05901100165976806
sg17
F-0.2649687796370828
sg18
F-0.4273735007121174
sg19
F-0.8984672327075168
sg20
F-0.12312139745608668
sg21
F-0.18622486001898897
sg22
F-0.8109664953734413
sg23
F0.11051383595506636
sg24
F-0.5022182867333417
sg25
F-0.3517129634473594
sg26
F0.08145864675315316
sg27
F-0.4826639001541998
sg28
F-1.2222083969789288
sg29
F-0.8847805924698869
sg30
F-0.4496617911128072
ssS'HANNON KEVIN P'
p37
(dp38
g3
F-0.24605561595174183
sg4
F-0.2800859438637654
sg5
F-0.3712864151737403
sg6
F0.008704896460116398
sg7
I01
sg8
F1.1610885176889112
sg9
F1.5808444823952077
sg10
F-0.4121807400253963
sg11
F-0.36488552739795277
sg12
F-2.6068913969591487
sg13
F0.3652767956672921
sg14
F-0.0339594496849806
sg15
F-0.04743702839463696
sg16
F-0.05901100165976806
sg17
F-0.24575820006733057
sg18
F-0.406752960626728
sg19
F-0.29494272360279283
sg20
F-0.4405938863325444
sg21
F-0.18622486001898897
sg22
F0.19321240233884668
sg23
F-0.08203699218546784
sg24
F0.13107568733964617
sg25
F-0.18136597381005165
sg26
F0.05777514262963766
sg27
F-0.20693145114851513
sg28
F-0.1167441573032645
sg29
F-0.7581836382792485
sg30
F0.188952637403244
ssS'MORDAUNT KRISTINA M'
p39
(dp40
g3
F-0.7574179780686766
sg4
F-0.2800859438637654
sg5
F-0.34743678131874545
sg6
F-0.36989070193824564
sg7
I00
sg8
F-0.1424382941117563
sg9
F-0.7510341545353315
sg10
F-0.7949896637583166
sg11
F-0.7742755461867982
sg12
F0.48155378274966965
sg13
F0.06175664536362788
sg14
F-0.0339594496849806
sg15
F-0.8614753592066567
sg16
F-0.05901100165976806
sg17
F-0.27649512737893417
sg18
F-0.4248100133059073
sg19
F-0.27758467858344665
sg20
F-0.03616307256388849
sg21
F-0.18622486001898897
sg22
F-0.5933944008691123
sg23
F0.09582903695701411
sg24
F-0.6003763209016784
sg25
F-0.3517129634473594
sg26
F0.05709397836109505
sg27
F-0.5877187022865633
sg28
F-0.00860274384590727
sg29
F-0.6091521471847342
sg30
F-0.5348578514122511
ssS'MEYER ROCKFORD G'
p41
(dp42
g3
F-0.6438906402589839
sg4
F2.7696456947587405
sg5
F-1.2005179644997563
sg6
F-1.0533227206420328
sg7
I00
sg8
F-0.07644872701056371
sg9
F-0.7510341545353315
sg10
F-0.38531031162583324
sg11
F-0.7742755461867982
sg12
F0.48155378274966965
sg13
F0.020959439606895853
sg14
F-0.0339594496849806
sg15
F-0.8441721289864978
sg16
F-0.05901100165976806
sg17
F-0.24960031598128102
sg18
F-0.4273735007121174
sg19
F-0.8984672327075168
sg20
F-0.04450271189522622
sg21
F-0.18622486001898897
sg22
F-0.8109664953734413
sg23
F0.13009356795246937
sg24
F-0.5119565385891456
sg25
F-0.3517129634473594
sg26
F0.08145864675315316
sg27
F-0.4377359504994037
sg28
F-1.2222083969789288
sg29
F-0.07426968824689716
sg30
F-0.47035939532402177
ssS'MCMAHON JEFFREY'
p43
(dp44
g3
F0.39498236909436785
sg4
F-0.2800859438637654
sg5
F2.139600113733782
sg6
F0.01986366444155934
sg7
I00
sg8
F-0.09277346935122305
sg9
F0.25102078103086334
sg10
F0.3186426004138693
sg11
F-0.03225613713201589
sg12
F0.48155378274966965
sg13
F0.5152849655986407
sg14
F-0.0339594496849806
sg15
F0.8908699558167056
sg16
F-0.05901100165976806
sg17
F-0.23038973641152877
sg18
F0.11285376413464848
sg19
F1.5325101283880058
sg20
F-0.46925598858427325
sg21
F-0.18622486001898897
sg22
F0.9296102606611912
sg23
F-0.11412999664932388
sg24
F-0.42831419271588317
sg25
F-0.1408071667535498
sg26
F-0.013937748069460985
sg27
F-0.3807750684119802
sg28
F0.4610172472417043
sg29
F0.9131095478198021
sg30
F-0.3905592379922277
ssS'HORTON STANLEY C'
p45
(dp46
g3
F0.39253565922777967
sg4
F4.887749246151467
sg5
F-1.2005179644997563
sg6
F-0.6005472705659053
sg7
I00
sg8
F-0.7694381786464165
sg9
F-0.7510341545353315
sg10
F0.47463568322226873
sg11
F-0.21136427035213576
sg12
F0.48155378274966965
sg13
F-2.106755458461253
sg14
F-0.0339594496849806
sg15
F-0.016763120277082592
sg16
F-0.05901100165976806
sg17
F0.7541524665382741
sg18
F-0.4273735007121174
sg19
F-0.8984672327075168
sg20
F-0.4491629043624936
sg21
F-0.18622486001898897
sg22
F-0.8109664953734413
sg23
F1.2538766046490761
sg24
F0.2334819617115766
sg25
F-0.23003654227785386
sg26
F0.08145864675315316
sg27
F0.49787358057335535
sg28
F-1.2222083969789288
sg29
F0.48864739040224553
sg30
F0.14615764405206275
ssS'PIPER GREGORY F'
p47
(dp48
g3
F-0.15161261510143711
sg4
F1.5845695026708986
sg5
F-0.15159693804979385
sg6
F-0.5148117159437565
sg7
I00
sg8
F-0.3435163924386445
sg9
F-0.7510341545353315
sg10
F-0.42306611796870003
sg11
F0.006124177129438364
sg12
F0.44852626273923846
sg13
F-1.2540193264774102
sg14
F-0.558863887924361
sg15
F-0.27788459450857106
sg16
F-0.05901100165976806
sg17
F-0.06325769415468417
sg18
F-0.42596003990274
sg19
F-0.517081774786178
sg20
F-0.4524277676075801
sg21
F-0.18622486001898897
sg22
F-0.5431854559834979
sg23
F-0.12856045160710597
sg24
F-0.5208986890655917
sg25
F0.03765158429505836
sg26
F0.11842437398019343
sg27
F-0.46894666438469973
sg28
F-0.3266748121165762
sg29
F-0.12277070299522311
sg30
F-0.41980494058767875
ssS'HUMPHREY GENE E'
p49
(dp50
g3
F-0.6947822054840186
sg4
F4.611600922027844
sg5
F-1.0788580344978724
sg6
F-0.5971924977840016
sg7
I00
sg8
F-0.6741280084429089
sg9
F-0.7510341545353315
sg10
F0.07874190576942831
sg11
F-0.646341165315284
sg12
F0.48155378274966965
sg13
F0.2915190502087283
sg14
F-0.0339594496849806
sg15
F-0.7678806139248883
sg16
F-0.05901100165976806
sg17
F-0.26016613474464473
sg18
F-0.4273735007121174
sg19
F-0.8099216996874813
sg20
F-0.1424242146065895
sg21
F-0.18622486001898897
sg22
F-0.8109664953734413
sg23
F-0.05905480176402589
sg24
F-0.3549728946950966
sg25
F-0.21381301945525313
sg26
F0.07798394363047517
sg27
F-0.7109014763206929
sg28
F-0.6282303241722244
sg29
F0.474773919791764
sg30
F-0.23650264672153862
ssS'UMANOFF ADAM S'
p51
(dp52
g3
F-0.7031010190304184
sg4
F-0.2800859438637654
sg5
F0.09359873585268129
sg6
F-0.3255484632828966
sg7
I00
sg8
F-0.2256657995411251
sg9
F-0.7510341545353315
sg10
F-0.6665265336556732
sg11
F-0.6207542891409812
sg12
F0.48155378274966965
sg13
F0.03552987023430013
sg14
F-0.0339594496849806
sg15
F-0.829228430159997
sg16
F-0.05901100165976806
sg17
F-0.25920560576615714
sg18
F-0.4273735007121174
sg19
F0.043406176401480166
sg20
F-0.13094928305249887
sg21
F-0.18622486001898897
sg22
F-0.28293575832639656
sg23
F0.11785623545409249
sg24
F-0.6250449341592068
sg25
F-0.3517129634473594
sg26
F0.04449765770972091
sg27
F-0.7109014763206929
sg28
F0.0890698537876789
sg29
F-0.389034687178586
sg30
F-0.5348578514122511
ssS'BLACHMAN JEREMY M'
p53
(dp54
g3
F0.45370340589248476
sg4
F-0.2800859438637654
sg5
F0.850891604102293
sg6
F-0.3674811594045591
sg7
I00
sg8
F-0.24141925411014817
sg9
F0.44851095499487875
sg10
F-0.33740592820386905
sg11
F-0.4544395940080127
sg12
F0.48155378274966965
sg13
F0.06065384159113797
sg14
F-0.0339594496849806
sg15
F0.9679479813428679
sg16
F-0.05901100165976806
sg17
F-0.2630477216801076
sg18
F-0.4268793344651371
sg19
F0.5945728643191467
sg20
F-0.7251805778677315
sg21
F-0.18622486001898897
sg22
F-0.2419317866698115
sg23
F0.0922922078702381
sg24
F-0.5121362499868636
sg25
F-0.33548944062475866
sg26
F0.022868778800716458
sg27
F-0.5992205267922007
sg28
F-0.09287580247589065
sg29
F-0.0012063682484424827
sg30
F-0.4348323048970278
ssS'SUNDE MARTIN'
p55
(dp56
g3
F0.537870225303119
sg4
F-0.2800859438637654
sg5
F-1.2005179644997563
sg6
F-0.36116362156894755
sg7
I00
sg8
F0.08315478953035249
sg9
F-0.06394797612084185
sg10
F-0.49267537410604334
sg11
F-0.30091833696219566
sg12
F0.48155378274966965
sg13
F0.16228275311382329
sg14
F-0.0339594496849806
sg15
F1.1559239823709575
sg16
F-0.05901100165976806
sg17
F-0.2399950261964049
sg18
F-0.22548842094395524
sg19
F-0.8984672327075168
sg20
F-0.6678906420269533
sg21
F-0.18622486001898897
sg22
F-0.3423496764410403
sg23
F0.007981785651572756
sg24
F-0.5423563955857487
sg25
F-0.24626006510045462
sg26
F0.08145864675315316
sg27
F-0.2979960788436707
sg28
F-0.05225461607636235
sg29
F-0.20721925007641018
sg30
F-0.5348578514122511
ssS'GIBBS DANA R'
p57
(dp58
g3
F-0.6747191845779953
sg4
F0.5525634450723894
sg5
F-1.2005179644997563
sg6
F-0.962606160579659
sg7
I00
sg8
F-0.652287813824283
sg9
F-0.08491455179802222
sg10
F-0.5412838954586293
sg11
F-0.7742755461867982
sg12
F0.48155378274966965
sg13
F0.04427212861074267
sg14
F-0.0339594496849806
sg15
F-0.8433856185219452
sg16
F-0.05901100165976806
sg17
F-0.2649687796370828
sg18
F-0.4273735007121174
sg19
F-0.8984672327075168
sg20
F-0.04488178641028708
sg21
F-0.18622486001898897
sg22
F-0.8109664953734413
sg23
F0.11051383595506636
sg24
F-0.3626029981664782
sg25
F-0.3517129634473594
sg26
F0.08145864675315316
sg27
F-0.7109014763206929
sg28
F-1.2222083969789288
sg29
F-0.46092755917288797
sg30
F-0.24493180913143667
ssS'LOWRY CHARLES P'
p59
(dp60
g3
F-0.7574179780686766
sg4
F-0.2800859438637654
sg5
F-1.2005179644997563
sg6
F-1.0952652660265343
sg7
I00
sg8
F-0.2703401316187874
sg9
F-0.7510341545353315
sg10
F-0.9634235021162878
sg11
F-0.7742755461867982
sg12
F0.48155378274966965
sg13
F0.06175664536362788
sg14
F-0.2309309442748452
sg15
F-0.8614753592066567
sg16
F-0.05901100165976806
sg17
F-0.27649512737893417
sg18
F-0.4273735007121174
sg19
F-1.0418254113448262
sg20
F-0.03616307256388849
sg21
F-0.18622486001898897
sg22
F-0.8109664953734413
sg23
F0.09582903695701411
sg24
F-0.5810097262674109
sg25
F-0.3517129634473594
sg26
F0.28033426462425903
sg27
F-0.6201074241878971
sg28
F-1.2222083969789288
sg29
F-0.8847805924698869
sg30
F-0.486211077424747
ssS'COLWELL WESLEY'
p61
(dp62
g3
F0.10284521102373619
sg4
F-0.23452709717319797
sg5
F-0.7982167862756655
sg6
F-0.2755023114267053
sg7
I01
sg8
F0.08280958958370377
sg9
F-0.7510341545353315
sg10
F-0.5084989550076562
sg11
F2.2961495947295423
sg12
F0.3388120376999371
sg13
F0.12624132441755043
sg14
F-0.0339594496849806
sg15
F0.02885448666697262
sg16
F-0.05901100165976806
sg17
F-0.23807396823942967
sg18
F-0.24253352288942864
sg19
F-0.6056676867938469
sg20
F-0.41012658062984947
sg21
F-0.18622486001898897
sg22
F-0.007623377203610937
sg23
F0.031098346735751764
sg24
F-0.5424366090996742
sg25
F-0.2624835879230554
sg26
F0.06996860923454994
sg27
F-0.29839662520017707
sg28
F0.08885629721488496
sg29
F-0.23121365342868286
sg30
F-0.5348578514122511
ssS'MULLER MARK S'
p63
(dp64
g3
F-0.6908674696974775
sg4
F1.1108102998088123
sg5
F-1.2005179644997563
sg6
F-0.32566858468911514
sg7
I00
sg8
F-0.19782729595122686
sg9
F1.7373604961889415
sg10
F0.04076261590951103
sg11
F-0.6207542891409812
sg12
F-0.23085694798263778
sg13
F0.038443956359781
sg14
F-0.0339594496849806
sg15
F-0.7718131662476516
sg16
F-0.05901100165976806
sg17
F-0.26112666372313237
sg18
F-0.42565300278605006
sg19
F-0.8984672327075168
sg20
F-0.1531349063192348
sg21
F-0.18622486001898897
sg22
F-0.07456863705109681
sg23
F0.11540876895441711
sg24
F-0.45741903920595456
sg25
F-0.3517129634473594
sg26
F0.08145864675315316
sg27
F-0.49791006508393354
sg28
F-0.07875380613028282
sg29
F0.5194368824860081
sg30
F-0.39679801799120545
ssS'JACKSON CHARLENE R'
p65
(dp66
g3
F-0.6311677489527252
sg4
F-0.2800859438637654
sg5
F-0.9524963891394882
sg6
F-0.27348249910640016
sg7
I00
sg8
F-0.009297556937323207
sg9
F-0.7510341545353315
sg10
F-0.7770641159338318
sg11
F-0.4544395940080127
sg12
F0.48155378274966965
sg13
F0.2436726469344746
sg14
F-0.0339594496849806
sg15
F-0.7694536348539937
sg16
F-0.05901100165976806
sg17
F-0.22270550458362787
sg18
F-0.42294962272904046
sg19
F-0.7179542027361547
sg20
F-0.2337061521503788
sg21
F-0.18622486001898897
sg22
F-0.6436033457547267
sg23
F-0.03199829960485973
sg24
F-0.5391839392790937
sg25
F-0.19758949663265238
sg26
F0.07437495582564321
sg27
F-0.3914852526259974
sg28
F0.08892899732477226
sg29
F-0.6430718969881078
sg30
F-0.5106703258968779
ssS'WESTFAHL RICHARD K'
p67
(dp68
g3
F-0.7574179780686766
sg4
F-0.2800859438637654
sg5
F0.06309848908408727
sg6
F-0.918426699130353
sg7
I00
sg8
F-0.06648573243968921
sg9
F-0.3815831613918886
sg10
F-0.7427588837148128
sg11
F-0.7742755461867982
sg12
F0.470852759256055
sg13
F0.06175664536362788
sg14
F-0.0339594496849806
sg15
F-0.8614753592066567
sg16
F-0.05901100165976806
sg17
F-0.27649512737893417
sg18
F0.30139453844667097
sg19
F0.021207736805748386
sg20
F-0.03616307256388849
sg21
F-0.18622486001898897
sg22
F-0.8109664953734413
sg23
F0.09582903695701411
sg24
F-0.579504244018588
sg25
F-0.3517129634473594
sg26
F0.04536876870483362
sg27
F-0.48349394090772696
sg28
F-0.9325711591879297
sg29
F-0.5505582658887969
sg30
F-0.5348578514122511
ssS'WALTERS GARETH W'
p69
(dp70
g3
F-0.7574179780686766
sg4
F-0.19160013604842027
sg5
F-0.37747416491752855
sg6
F-1.0479722917010106
sg7
I00
sg8
F-0.3684695720684923
sg9
F-0.7510341545353315
sg10
F-0.8870522065859019
sg11
F-0.7742755461867982
sg12
F0.48155378274966965
sg13
F0.06175664536362788
sg14
F-0.0339594496849806
sg15
F-0.8614753592066567
sg16
F-0.05901100165976806
sg17
F-0.27649512737893417
sg18
F-0.4273735007121174
sg19
F-0.29944624090096844
sg20
F-0.03616307256388849
sg21
F-0.18622486001898897
sg22
F-0.8109664953734413
sg23
F0.09582903695701411
sg24
F-0.5031477223755225
sg25
F-0.3517129634473594
sg26
F0.05795186962065894
sg27
F-0.7109014763206929
sg28
F-1.2222083969789288
sg29
F-0.8464483107003146
sg30
F-0.40019501239673255
ssS'WALLS JR ROBERT H'
p71
(dp72
g3
F-0.42906951397253956
sg4
F-0.2800859438637654
sg5
F0.04034511010496041
sg6
F0.2874106386077038
sg7
I00
sg8
F-1.1716126079800202
sg9
F0.02877853987356614
sg10
F-0.015179237359230265
sg11
F-0.556787098705224
sg12
F0.48155378274966965
sg13
F-0.15097164179647476
sg14
F-0.0339594496849806
sg15
F-0.6923756093278314
sg16
F-0.05901100165976806
sg17
F-0.13625789651974274
sg18
F-0.42736986713677194
sg19
F0.004647559024267954
sg20
F-0.21139924638805904
sg21
F-0.18622486001898897
sg22
F-0.2419317866698115
sg23
F0.2744940914333165
sg24
F0.07285960567255349
sg25
F-0.3517129634473594
sg26
F0.04601862307339214
sg27
F0.2062510204305742
sg28
F0.4003262867564135
sg29
F-0.09595389299074852
sg30
F0.03323055039519846
ssS'KITCHEN LOUISE'
p73
(dp74
g3
F3.3065671103343317
sg4
F-0.2800859438637654
sg5
F-1.0598562833161607
sg6
F-0.33355383421571716
sg7
I00
sg8
F-0.03640379478453375
sg9
F-0.7510341545353315
sg10
F0.050689344383649804
sg11
F2.436877413688208
sg12
F0.48155378274966965
sg13
F0.24629369701243825
sg14
F-0.0339594496849806
sg15
F2.024231535237112
sg16
F-0.05901100165976806
sg17
F1.3832989474476602
sg18
F-0.2567317185517474
sg19
F-0.7960920008978082
sg20
F2.6191973770567176
sg21
F-0.18622486001898897
sg22
F1.2643365598986207
sg23
F0.2055379179796879
sg24
F-0.5603129833483877
sg25
F1.2219687503449124
sg26
F0.07744123869741773
sg27
F-0.43554003485466314
sg28
F0.011158054772834181
sg29
F0.637433740831971
sg30
F-0.5242657533547416
ssS'CHAN RONNIE'
p75
(dp76
g3
F-0.7574179780686766
sg4
F-0.2800859438637654
sg5
F-1.2005179644997563
sg6
F-1.1220120212107116
sg7
I00
sg8
F-0.2256657995411251
sg9
F-0.7510341545353315
sg10
F-0.9923666283337399
sg11
F-0.7742755461867982
sg12
F0.3836750878614078
sg13
F0.06175664536362788
sg14
F-0.07556177334742875
sg15
F-0.8614753592066567
sg16
F-0.05901100165976806
sg17
F-0.27649512737893417
sg18
F-0.4273735007121174
sg19
F-0.9287458949055509
sg20
F-0.03616307256388849
sg21
F4.92106169718749
sg22
F-0.8109664953734413
sg23
F0.09582903695701411
sg24
F-0.6250449341592068
sg25
F-0.3517129634473594
sg26
F0.12346314004529492
sg27
F-0.6917248764206985
sg28
F-1.2222083969789288
sg29
F-0.8847805924698869
sg30
F-0.5348578514122511
ssS'BELFER ROBERT'
p77
(dp78
g3
F-0.7574179780686766
sg4
F-0.4492196557718844
sg5
F-1.2005179644997563
sg6
F-1.1251805564972768
sg7
I00
sg8
F-0.2440436600346869
sg9
F-0.7510341545353315
sg10
F-0.9662511163787956
sg11
F-0.7742755461867982
sg12
F0.48155378274966965
sg13
F0.06175664536362788
sg14
F0.022552295763211817
sg15
F-0.8614753592066567
sg16
F-0.05901100165976806
sg17
F-0.27649512737893417
sg18
F-0.4273735007121174
sg19
F-0.8573373173563795
sg20
F-0.03616307256388849
sg21
F-0.016385246919465923
sg22
F-0.8109664953734413
sg23
F0.09582903695701411
sg24
F-0.6302615336717683
sg25
F-0.3517129634473594
sg26
F0.024400602306745088
sg27
F-0.7109014763206929
sg28
F-1.2222083969789288
sg29
F-0.8398308283538685
sg30
F-0.5344285056147766
ssS'SHANKMAN JEFFREY A'
p79
(dp80
g3
F0.818752517987445
sg4
F-0.2800859438637654
sg5
F3.159628733899757
sg6
F-0.1338157531416418
sg7
I00
sg8
F-0.0928566719643828
sg9
F0.04849337968942231
sg10
F0.04462215971726755
sg11
F0.4283076340054352
sg12
F0.48155378274966965
sg13
F3.45618105487778
sg14
F-0.0339594496849806
sg15
F0.4991877444694729
sg16
F-0.05901100165976806
sg17
F2.2986830639463554
sg18
F-0.42520970659390606
sg19
F2.2748989976474996
sg20
F-0.3182787784577515
sg21
F-0.18622486001898897
sg22
F0.527938701576276
sg23
F2.5188904545149553
sg24
F-0.3799045088987258
sg25
F0.3215632336905713
sg26
F-0.04307056634131731
sg27
F-0.33863144763360664
sg28
F0.15959350413522685
sg29
F0.4477944135679036
sg30
F-0.3464034079764184
ssS'WODRASKA JOHN'
p81
(dp82
g3
F-0.7574179780686766
sg4
F-0.2800859438637654
sg5
F-1.2005179644997563
sg6
F-1.1220120212107116
sg7
I00
sg8
F-0.2256657995411251
sg9
F-0.7510341545353315
sg10
F-0.9377218925406855
sg11
F-0.7742755461867982
sg12
F0.48155378274966965
sg13
F0.06175664536362788
sg14
F-0.0339594496849806
sg15
F-0.8614753592066567
sg16
F-0.05901100165976806
sg17
F-0.27649512737893417
sg18
F-0.08294144335455107
sg19
F-0.8984672327075168
sg20
F-0.03616307256388849
sg21
F-0.18622486001898897
sg22
F-0.8109664953734413
sg23
F0.09582903695701411
sg24
F-0.6250449341592068
sg25
F-0.3517129634473594
sg26
F0.08145864675315316
sg27
F-0.7109014763206929
sg28
F-1.2222083969789288
sg29
F-0.8016419472951832
sg30
F-0.5348578514122511
ssS'BERGSIEKER RICHARD P'
p83
(dp84
g3
F-0.5700000022880202
sg4
F-0.2800859438637654
sg5
F0.24105719726665864
sg6
F-0.5560008868729969
sg7
I00
sg8
F0.06312684974512948
sg9
F-0.491097070429701
sg10
F-0.762727458693364
sg11
F-0.7231017938381925
sg12
F0.00019301177713213088
sg13
F-0.024208895338057472
sg14
F-0.0339594496849806
sg15
F-0.6782184209658831
sg16
F-0.05901100165976806
sg17
F-0.21982391764816503
sg18
F0.348968940444557
sg19
F0.15072818508595665
sg20
F-0.14609179350553417
sg21
F-0.18622486001898897
sg22
F-0.6436033457547267
sg23
F0.16802929869743768
sg24
F-0.5470498326225306
sg25
F-0.3517129634473594
sg26
F0.04028612827408417
sg27
F-0.3214327669099887
sg28
F-0.3683365188388665
sg29
F-0.6133936507801502
sg30
F-0.5348578514122511
ssS'URQUHART JOHN A'
p85
(dp86
g3
F-0.7574179780686766
sg4
F-0.2800859438637654
sg5
F4.369821033199633
sg6
F-1.1220120212107116
sg7
I00
sg8
F-0.2256657995411251
sg9
F-0.7510341545353315
sg10
F-0.9264596287214506
sg11
F-0.7742755461867982
sg12
F0.445223807988848
sg13
F0.06175664536362788
sg14
F-0.0339594496849806
sg15
F-0.8614753592066567
sg16
F-0.05901100165976806
sg17
F-0.27649512737893417
sg18
F-0.4273735007121174
sg19
F3.1556912371021064
sg20
F-0.03616307256388849
sg21
F1.7094644105767833
sg22
F-0.8109664953734413
sg23
F0.09582903695701411
sg24
F-0.6250449341592068
sg25
F-0.3517129634473594
sg26
F-0.0776346085970792
sg27
F-0.7109014763206929
sg28
F-1.2222083969789288
sg29
F-0.784507097214157
sg30
F-0.5348578514122511
ssS'BIBI PHILIPPE A'
p87
(dp88
g3
F0.028954573052772405
sg4
F-0.2800859438637654
sg5
F-0.26117370319766603
sg6
F-0.39994103964835576
sg7
I00
sg8
F-0.25419949186170226
sg9
F-0.21786245593551007
sg10
F-0.2587982003966339
sg11
F-0.48002647018231553
sg12
F0.48155378274966965
sg13
F0.08518417927006665
sg14
F-0.0339594496849806
sg15
F0.18930262143571855
sg16
F-0.05901100165976806
sg17
F-0.23807396823942967
sg18
F0.3460112101133664
sg19
F-0.21480139215494323
sg20
F-0.5079332370122337
sg21
F-0.18622486001898897
sg22
F-0.14151389689858268
sg23
F0.06210198861250715
sg24
F-0.40690487458392016
sg25
F-0.28681887215695645
sg26
F0.05463023712012534
sg27
F-0.48753957726370856
sg28
F-0.2515483360617886
sg29
F0.01315913782875296
sg30
F-0.3432880696419894
ssS'PIRO JIM'
p89
(dp90
g3
F-0.7290361436162535
sg4
F-0.2800859438637654
sg5
F-1.2005179644997563
sg6
F-1.1186127425679415
sg7
I00
sg8
F-0.2073655823540889
sg9
F-0.7510341545353315
sg10
F-0.9886882101432525
sg11
F-0.7742755461867982
sg12
F0.48155378274966965
sg13
F0.04779529166884654
sg14
F-0.0339594496849806
sg15
F-0.8591158278129987
sg16
F-0.05901100165976806
sg17
F-0.26112666372313237
sg18
F-0.4273735007121174
sg19
F-0.8984672327075168
sg20
F-0.03730029610907093
sg21
F-0.18622486001898897
sg22
F-0.8109664953734413
sg23
F0.10507422166216529
sg24
F-0.6194484443911663
sg25
F-0.34360120203605904
sg26
F0.08145864675315316
sg27
F-0.6829553924738249
sg28
F-1.2222083969789288
sg29
F-0.8847805924698869
sg30
F-0.5348578514122511
ssS'RIEKER PAULA H'
p91
(dp92
g3
F-0.10757183750284942
sg4
F0.07415100252658727
sg5
F-0.38999583172188745
sg6
F-0.29636184433098817
sg7
I01
sg8
F-0.34139077139688034
sg9
F-0.7510341545353315
sg10
F-0.5263508652136589
sg11
F-0.3265052131364985
sg12
F0.3824702318828675
sg13
F-3.159504368570995
sg14
F-0.0339594496849806
sg15
F0.1279548052006098
sg16
F-0.05901100165976806
sg17
F-0.19773175114294994
sg18
F-0.4238307647503104
sg19
F-0.30855965779570177
sg20
F-0.477374286576272
sg21
F-0.18622486001898897
sg22
F-0.3423496764410403
sg23
F-0.2998831065843823
sg24
F-0.3980232983244798
sg25
F0.03765158429505836
sg26
F0.05830949825603268
sg27
F-0.5433283590984646
sg28
F-0.08989964172737935
sg29
F-0.4027875608609514
sg30
F-0.32113408789005726
ssS'WHALEY DAVID A'
p93
(dp94
g3
F-0.7574179780686766
sg4
F-0.2800859438637654
sg5
F-1.2005179644997563
sg6
F-1.1149181181780505
sg7
I00
sg8
F-0.2368895015240018
sg9
F-0.7510341545353315
sg10
F-0.984690193213485
sg11
F-0.7742755461867982
sg12
F0.48155378274966965
sg13
F0.06175664536362788
sg14
F-0.0339594496849806
sg15
F-0.8614753592066567
sg16
F-0.05901100165976806
sg17
F-0.27649512737893417
sg18
F-0.4273735007121174
sg19
F-0.8984672327075168
sg20
F-0.03616307256388849
sg21
F-0.18622486001898897
sg22
F-0.8109664953734413
sg23
F0.09582903695701411
sg24
F-0.6133657045608341
sg25
F-0.3517129634473594
sg26
F0.08145864675315316
sg27
F-0.7109014763206929
sg28
F-1.2222083969789288
sg29
F-0.8847805924698869
sg30
F-0.5219555200773726
ssS'BECK SALLY W'
p95
(dp96
g3
F2.8221185567498672
sg4
F-0.2800859438637654
sg5
F-0.29496271459386403
sg6
F-0.4745186183759818
sg7
I00
sg8
F-0.17616623892286065
sg9
F-0.7510341545353315
sg10
F-0.7032458660873756
sg11
F1.0679795383630062
sg12
F0.48155378274966965
sg13
F0.39000932553396195
sg14
F-0.0339594496849806
sg15
F1.2141257567478554
sg16
F-0.05901100165976806
sg17
F3.895082226192767
sg18
F-0.426345198889357
sg19
F-0.2393934334642723
sg20
F0.3557758011392999
sg21
F-0.18622486001898897
sg22
F-0.3423496764410403
sg23
F1.4213672861928945
sg24
F-0.61013480359949
sg25
F2.7794269413145836
sg26
F0.055595277815190296
sg27
F-0.6364477068938105
sg28
F-0.17110112071462436
sg29
F-0.4598110508856745
sg30
F-0.5348578514122511
ssS'HAUG DAVID L'
p97
(dp98
g3
F-0.47702502735766833
sg4
F-0.2800859438637654
sg5
F-1.188946385254483
sg6
F-0.9626762962120652
sg7
I00
sg8
F1.2392684662547477
sg9
F-0.7510341545353315
sg10
F-0.8198097731836689
sg11
F-0.7231017938381925
sg12
F0.48155378274966965
sg13
F0.10949295969978168
sg14
F-0.0339594496849806
sg15
F-0.49102893040234624
sg16
F-0.05901100165976806
sg17
F-0.2582450767876695
sg18
F-0.4273735007121174
sg19
F-0.8900453007522672
sg20
F-0.23034868659601862
sg21
F-0.18622486001898897
sg22
F-0.8109664953734413
sg23
F0.04673813765816756
sg24
F-0.36271846776764527
sg25
F-0.29493063356825683
sg26
F0.08112815336443228
sg27
F0.5990263049996355
sg28
F-1.2222083969789288
sg29
F-0.8845722886849591
sg30
F-0.5348578514122511
ssS'ECHOLS JOHN B'
p99
(dp100
g3
F-0.7574179780686766
sg4
F-0.2800859438637654
sg5
F-0.6760209094455795
sg6
F-0.5465396143316882
sg7
I00
sg8
F-0.11549121817209045
sg9
F2.471715566380487
sg10
F-0.13788413306798358
sg11
F-0.7742755461867982
sg12
F0.48155378274966965
sg13
F0.06175664536362788
sg14
F-0.0339594496849806
sg15
F-0.8614753592066567
sg16
F-0.05901100165976806
sg17
F-0.27649512737893417
sg18
F-0.32967574361151697
sg19
F-0.5167320853464101
sg20
F-0.03616307256388849
sg21
F-0.18622486001898897
sg22
F-0.6770759756784697
sg23
F0.09582903695701411
sg24
F-0.5056781156437208
sg25
F-0.3517129634473594
sg26
F0.0664785990496575
sg27
F-0.47015834665194833
sg28
F-0.39413142657825373
sg29
F0.29589578532421346
sg30
F-0.4562505826934094
ssS'MENDELSOHN JOHN'
p101
(dp102
g3
F-0.7574179780686766
sg4
F-0.2800859438637654
sg5
F-1.1969125040191237
sg6
F-1.1220120212107116
sg7
I00
sg8
F-0.2256657995411251
sg9
F-0.7510341545353315
sg10
F-0.9923239693353202
sg11
F-0.7742755461867982
sg12
F0.37875459872536243
sg13
F0.06175664536362788
sg14
F-0.0339594496849806
sg15
F-0.8614753592066567
sg16
F-0.05901100165976806
sg17
F-0.27649512737893417
sg18
F-0.4273735007121174
sg19
F-0.8958431360140917
sg20
F-0.03616307256388849
sg21
F5.17781162676199
sg22
F-0.8109664953734413
sg23
F0.09582903695701411
sg24
F-0.6250449341592068
sg25
F-0.3517129634473594
sg26
F0.08135567197098328
sg27
F-0.7109014763206929
sg28
F-1.2222083969789288
sg29
F-0.8847156893958462
sg30
F-0.5348578514122511
ssS'HICKERSON GARY J'
p103
(dp104
g3
F-0.11148657328939056
sg4
F-0.2800859438637654
sg5
F1.2075642182708115
sg6
F-0.5058107424826535
sg7
I00
sg8
F-0.04114356877975999
sg9
F-0.6512082195947264
sg10
F-0.3580169094221007
sg11
F-0.26253802270074145
sg12
F0.48155378274966965
sg13
F0.03138944024943325
sg14
F-0.0339594496849806
sg15
F-0.15361594110924823
sg16
F-0.05901100165976806
sg17
F-0.2505608449597686
sg18
F-0.4238561997777285
sg19
F0.8541634027545373
sg20
F-0.42626383987658917
sg21
F-0.18622486001898897
sg22
F0.3271029220338184
sg23
F0.1185352874103799
sg24
F-0.5728592997366718
sg25
F-0.34360120203605904
sg26
F0.012681928897006294
sg27
F-0.4503123971620988
sg28
F-0.25989521742822413
sg29
F0.028158325946413248
sg30
F-0.5348578514122511
ssS'CLINE KENNETH W'
p105
(dp106
g3
F-0.7574179780686766
sg4
F-0.2800859438637654
sg5
F-1.2005179644997563
sg6
F-1.1083932048353409
sg7
I00
sg8
F-0.15030107277544158
sg9
F-0.7510341545353315
sg10
F-0.9776294716741596
sg11
F-0.7742755461867982
sg12
F0.48155378274966965
sg13
F0.06175664536362788
sg14
F-0.6396257124242226
sg15
F-0.8614753592066567
sg16
F-0.05901100165976806
sg17
F-0.27649512737893417
sg18
F-0.4273735007121174
sg19
F-1.339278287470319
sg20
F-0.03616307256388849
sg21
F-0.18622486001898897
sg22
F-0.8109664953734413
sg23
F0.09582903695701411
sg24
F-0.6026232457637328
sg25
F-0.3517129634473594
sg26
F0.6929798847716633
sg27
F-0.3197567344418345
sg28
F-1.2222083969789288
sg29
F-0.8847805924698869
sg30
F-0.5348578514122511
ssS'LEWIS RICHARD'
p107
(dp108
g3
F-0.29156441947028244
sg4
F-0.2800859438637654
sg5
F-1.2005179644997563
sg6
F-1.0608965066185552
sg7
I00
sg8
F-0.33875933008351766
sg9
F-0.7510341545353315
sg10
F-0.9262324733491483
sg11
F-0.646341165315284
sg12
F0.48155378274966965
sg13
F0.02387352573237672
sg14
F-0.0339594496849806
sg15
F-0.2802441259022291
sg16
F-0.05901100165976806
sg17
F-0.25152137393825624
sg18
F-0.4273735007121174
sg19
F-0.8984672327075168
sg20
F-0.33861678236579823
sg21
F-0.18622486001898897
sg22
F-0.8109664953734413
sg23
F0.12764610145279398
sg24
F-0.5244258358069791
sg25
F-0.3517129634473594
sg26
F0.08145864675315316
sg27
F-0.7109014763206929
sg28
F-1.2222083969789288
sg29
F-0.8847805924698869
sg30
F-0.4237014660854272
ssS'HAYES ROBERT E'
p109
(dp110
g3
F-0.5107896235165856
sg4
F-0.2669496172247358
sg5
F-1.2005179644997563
sg6
F-1.111131081469231
sg7
I00
sg8
F-0.16589916919167066
sg9
F-0.7510341545353315
sg10
F-0.9782975247317555
sg11
F-0.5695805367923754
sg12
F0.48155378274966965
sg13
F0.04427212861074267
sg14
F-0.0339594496849806
sg15
F-0.8221498359790229
sg16
F-0.05901100165976806
sg17
F-0.2649687796370828
sg18
F-0.4273735007121174
sg19
F-0.8984672327075168
sg20
F-0.15987372973423
sg21
F-0.18622486001898897
sg22
F-0.8109664953734413
sg23
F0.11051383595506636
sg24
F-0.6071308193338821
sg25
F-0.3517129634473594
sg26
F0.08145864675315316
sg27
F-0.6214473049202812
sg28
F-1.2222083969789288
sg29
F-0.8812894210344955
sg30
F-0.5348578514122511
ssS'KOPPER MICHAEL J'
p111
(dp112
g3
F-0.7574179780686766
sg4
F-0.2800859438637654
sg5
F1.6773703356289074
sg6
F-0.4321782549375309
sg7
I01
sg8
F0.23854703980807984
sg9
F0.11807287689337552
sg10
F-0.1511897737318646
sg11
F-0.7742755461867982
sg12
F0.48155378274966965
sg13
F0.06175664536362788
sg14
F-0.0339594496849806
sg15
F-0.8614753592066567
sg16
F-0.05901100165976806
sg17
F-0.27649512737893417
sg18
F1.221364945858019
sg19
F1.1960938401376744
sg20
F-0.03616307256388849
sg21
F-0.18622486001898897
sg22
F-0.2754044165935544
sg23
F0.09582903695701411
sg24
F-0.5085067659452615
sg25
F-0.3517129634473594
sg26
F-0.0007361026850612325
sg27
F-0.12896787950333732
sg28
F-0.20302101271201656
sg29
F0.2784807118356737
sg30
F-0.5348578514122511
ssS'LEFF DANIEL P'
p113
(dp114
g3
F0.6235050706337062
sg4
F-0.2800859438637654
sg5
F-1.2005179644997563
sg6
F-0.3406053361703202
sg7
I00
sg8
F-0.07731574017156956
sg9
F1.249722852682797
sg10
F-0.1964038307693549
sg11
F0.08288480565234688
sg12
F0.48155378274966965
sg13
F0.1261966572736444
sg14
F-0.0339594496849806
sg15
F1.2400806020780937
sg16
F-0.05901100165976806
sg17
F-0.21598180173421458
sg18
F-0.4217723443171169
sg19
F-0.8984672327075168
sg20
F-0.38738766680663556
sg21
F-0.18622486001898897
sg22
F-0.14151389689858268
sg23
F0.02824056960526313
sg24
F-0.5823912206658002
sg25
F-0.23814830368915424
sg26
F0.08145864675315316
sg27
F-0.49791006508393354
sg28
F0.021626870596605233
sg29
F0.28357472607929973
sg30
F-0.5348578514122511
ssS'LAVORATO JOHN J'
p115
(dp116
g3
F2.7947154062440793
sg4
F-0.2800859438637654
sg5
F0.006263764075197596
sg6
F0.1856857937990204
sg7
I00
sg8
F-3.7547927323750594
sg9
F2.1841710729094297
sg10
F2.414520405581779
sg11
F5.98065976382915
sg12
F0.48155378274966965
sg13
F0.03707440203373266
sg14
F-0.0339594496849806
sg15
F2.254679101351046
sg16
F-0.05901100165976806
sg17
F2.2064722820115446
sg18
F-0.42455384624405357
sg19
F-0.020157246881825318
sg20
F7.9424269033026675
sg21
F-0.18622486001898897
sg22
F4.544654292425428
sg23
F-0.9883194493280556
sg24
F-0.013725203777170457
sg25
F2.982220976597093
sg26
F0.04699201307511952
sg27
F-0.11531090292021433
sg28
F0.31943378323618954
sg29
F3.6872712892952673
sg30
F0.008718107481797528
ssS'BERBERIAN DAVID'
p117
(dp118
g3
F-0.7574179780686766
sg4
F-0.2800859438637654
sg5
F-0.9108143426370405
sg6
F-0.3450853414760879
sg7
I00
sg8
F0.06225686946628961
sg9
F-0.7510341545353315
sg10
F-0.7326053895000625
sg11
F-0.7742755461867982
sg12
F0.48155378274966965
sg13
F0.06175664536362788
sg14
F-0.0339594496849806
sg15
F-0.8614753592066567
sg16
F-0.05901100165976806
sg17
F-0.27649512737893417
sg18
F-0.4273735007121174
sg19
F-0.6876175173141922
sg20
F-0.03616307256388849
sg21
F-0.18622486001898897
sg22
F-0.8109664953734413
sg23
F0.09582903695701411
sg24
F-0.33002767495444457
sg25
F-0.3517129634473594
sg26
F0.07318448385069286
sg27
F-0.1973868686474581
sg28
F-0.23811244700324216
sg29
F-0.7845869104538558
sg30
F-0.3225511250700321
ssS'DETMERING TIMOTHY J'
p119
(dp120
g3
F-0.7574179780686766
sg4
F1.1642450021768183
sg5
F0.07247755857762457
sg6
F-0.39533977145164656
sg7
I00
sg8
F-0.5928556867178316
sg9
F-0.1516185175417445
sg10
F-0.4874725514863352
sg11
F-0.7742755461867982
sg12
F-0.286582527825636
sg13
F0.06175664536362788
sg14
F-0.4377660088864659
sg15
F-0.8614753592066567
sg16
F-0.05901100165976806
sg17
F-0.27649512737893417
sg18
F-0.42536595033376007
sg19
F-0.2658612456719176
sg20
F-0.03616307256388849
sg21
F-0.18622486001898897
sg22
F-0.5264491410216264
sg23
F0.09582903695701411
sg24
F-0.3851302182056417
sg25
F-0.3517129634473594
sg26
F0.02048665555256051
sg27
F-0.5247667573653183
sg28
F-0.2657475762741517
sg29
F-0.3565296489755858
sg30
F-0.26981818152020265
ssS'WAKEHAM JOHN'
p121
(dp122
g3
F-0.7574179780686766
sg4
F-0.2800859438637654
sg5
F1.3275188629102341
sg6
F-1.1220120212107116
sg7
I00
sg8
F-0.2256657995411251
sg9
F-0.7510341545353315
sg10
F-0.930951794196914
sg11
F-0.7742755461867982
sg12
F0.48155378274966965
sg13
F0.06175664536362788
sg14
F-0.0339594496849806
sg15
F-0.8614753592066567
sg16
F-0.05901100165976806
sg17
F-0.27649512737893417
sg18
F-0.4273735007121174
sg19
F0.9414678089601151
sg20
F-0.03616307256388849
sg21
F5.464651862218962
sg22
F-0.8109664953734413
sg23
F0.09582903695701411
sg24
F-0.6250449341592068
sg25
F-0.3517129634473594
sg26
F0.00925593006319242
sg27
F-0.7109014763206929
sg28
F-1.2222083969789288
sg29
F-0.7913416540312121
sg30
F-0.5348578514122511
ssS'POWERS WILLIAM'
p123
(dp124
g3
F-0.4378776694922571
sg4
F-0.2800859438637654
sg5
F-1.2005179644997563
sg6
F-1.1220120212107116
sg7
I00
sg8
F-0.2256657995411251
sg9
F-0.7510341545353315
sg10
F-0.9923666283337399
sg11
F-0.7742755461867982
sg12
F0.46421416134797927
sg13
F0.02387352573237672
sg14
F-0.0339594496849806
sg15
F-0.8520372336320245
sg16
F-0.05901100165976806
sg17
F-0.25152137393825624
sg18
F-0.4273735007121174
sg19
F-0.8984672327075168
sg20
F-0.04071196674461818
sg21
F0.7185523787151521
sg22
F-0.8109664953734413
sg23
F0.12764610145279398
sg24
F-0.6250449341592068
sg25
F-0.3517129634473594
sg26
F0.08145864675315316
sg27
F-0.7109014763206929
sg28
F-1.2222083969789288
sg29
F-0.8847805924698869
sg30
F-0.5348578514122511
ssS'GOLD JOSEPH'
p125
(dp126
g3
F-0.7574179780686766
sg4
F-0.2800859438637654
sg5
F-1.2005179644997563
sg6
F-0.3058376411898146
sg7
I00
sg8
F-0.08126432040488163
sg9
F-0.3114773006056965
sg10
F-0.3052865684055765
sg11
F-0.7742755461867982
sg12
F0.48155378274966965
sg13
F0.06175664536362788
sg14
F-0.0339594496849806
sg15
F-0.8614753592066567
sg16
F-0.05901100165976806
sg17
F-0.27649512737893417
sg18
F1.0610988380965616
sg19
F-0.8984672327075168
sg20
F-0.03616307256388849
sg21
F-0.18622486001898897
sg22
F-0.30887704651729736
sg23
F0.09582903695701411
sg24
F-0.5212156389237131
sg25
F-0.3517129634473594
sg26
F0.08145864675315316
sg27
F-0.4503123971620988
sg28
F0.017691977148955176
sg29
F0.056740674978508224
sg30
F-0.4778058329085895
ssS'BANNANTINE JAMES M'
p127
(dp128
g3
F-0.4804504211708918
sg4
F-0.2800859438637654
sg5
F0.1710430525278893
sg6
F-0.7438971314648497
sg7
I00
sg8
F0.7900088494959464
sg9
F-0.7510341545353315
sg10
F-0.3205451281584333
sg11
F-0.27533146078789283
sg12
F0.4764965583134281
sg13
F0.01950239654415542
sg14
F-0.7519673660997687
sg15
F-0.49574799318966234
sg16
F-0.05901100165976806
sg17
F-0.2486397870027934
sg18
F1.14328122847212
sg19
F-0.4228035721270253
sg20
F-0.3664031735100784
sg21
F-0.18622486001898897
sg22
F-0.8109664953734413
sg23
F0.13131730120230706
sg24
F-0.004693138447356578
sg25
F-0.3517129634473594
sg26
F-0.06100085752090436
sg27
F0.32741865637909445
sg28
F-1.2200410249529137
sg29
F-0.4829967970181429
sg30
F-0.006029691938419771
ssS'DUNCAN JOHN H'
p129
(dp130
g3
F-0.7574179780686766
sg4
F-0.2800859438637654
sg5
F-1.2005179644997563
sg6
F-1.095297962453527
sg7
I00
sg8
F-0.27028138608378566
sg9
F-0.7510341545353315
sg10
F-0.9411228625019434
sg11
F-0.7742755461867982
sg12
F0.4567828950329691
sg13
F0.06175664536362788
sg14
F-0.0339594496849806
sg15
F-0.8614753592066567
sg16
F-0.05901100165976806
sg17
F-0.27649512737893417
sg18
F-0.4273735007121174
sg19
F-0.8984672327075168
sg20
F-0.03616307256388849
sg21
F5.11277106868613
sg22
F-0.8109664953734413
sg23
F0.09582903695701411
sg24
F-0.581063556870414
sg25
F-0.3517129634473594
sg26
F0.08145864675315316
sg27
F-0.7109014763206929
sg28
F-1.2222083969789288
sg29
F-0.8507976937296089
sg30
F-0.4862705454119162
ssS'SHAPIRO RICHARD S'
p131
(dp132
g3
F6.655623575720266
sg4
F-0.2800859438637654
sg5
F2.1556541573603822
sg6
F-0.3084753305589488
sg7
I00
sg8
F-0.13029317538239207
sg9
F-0.7510341545353315
sg10
F-0.610792287877521
sg11
F0.1724388722624068
sg12
F0.48155378274966965
sg13
F2.3488038247676886
sg14
F-0.0339594496849806
sg15
F2.6990575138233077
sg16
F-0.05901100165976806
sg17
F0.890547581483515
sg18
F-0.4260926654028487
sg19
F1.5441944508269734
sg20
F-0.16165284316349549
sg21
F-0.18622486001898897
sg22
F-0.37582230636478325
sg23
F0.9109193615134372
sg24
F-0.5082738154896284
sg25
F0.17555152828716467
sg26
F-0.014396264160338996
sg27
F-0.48690035726704206
sg28
F0.00040752602324984526
sg29
F-0.42100953743215924
sg30
F-0.45541424060572644
ssS'SHERRIFF JOHN R'
p133
(dp134
g3
F0.8021148908946452
sg4
F-0.2800859438637654
sg5
F-1.2005179644997563
sg6
F0.28620777388741253
sg7
I00
sg8
F0.4882765217818618
sg9
F0.04849337968942231
sg10
F0.5005638829479857
sg11
F-0.41605927974655843
sg12
F0.48155378274966965
sg13
F0.2501094612785027
sg14
F-0.0339594496849806
sg15
F0.7925561477476211
sg16
F-0.05901100165976806
sg17
F-0.18812646135807382
sg18
F2.937655191675287
sg19
F-0.8984672327075168
sg20
F-0.6566310080947799
sg21
F-0.18622486001898897
sg22
F0.19321240233884668
sg23
F-0.029282091779710206
sg24
F-0.25485814768485177
sg25
F-0.1651424509874509
sg26
F0.08145864675315316
sg27
F0.0532228166260249
sg28
F0.7260636728633245
sg29
F1.0164356802268648
sg30
F-0.2949524896708587
ssS'SHELBY REX'
p135
(dp136
g3
F-0.6473160340722074
sg4
F-0.2800859438637654
sg5
F-0.6430358182916847
sg6
F-0.35816153058053046
sg7
I01
sg8
F0.06225686946628961
sg9
F-0.7510341545353315
sg10
F-0.22086717974980924
sg11
F-0.6079608510538297
sg12
F0.47742497118505
sg13
F0.17784120906208778
sg14
F-0.0339594496849806
sg15
F-0.7899029069323632
sg16
F-0.05901100165976806
sg17
F-0.23903449721791728
sg18
F2.431022147684815
sg19
F-0.4927251466781827
sg20
F-0.15243542059302165
sg21
F-0.18622486001898897
sg22
F-0.6770759756784697
sg23
F-0.001129028390841375
sg24
F-0.33002767495444457
sg25
F-0.23814830368915424
sg26
F0.06553651894791421
sg27
F-0.1973868686474581
sg28
F-0.2596407670436186
sg29
F-0.006008318658885431
sg30
F-0.3225511250700321
ssS'LEMAISTRE CHARLES'
p137
(dp138
g3
F-0.7574179780686766
sg4
F-0.2800859438637654
sg5
F-1.2005179644997563
sg6
F-1.0923424928945076
sg7
I00
sg8
F-0.2756358119124436
sg9
F-0.7510341545353315
sg10
F-0.9350423330360536
sg11
F-0.7742755461867982
sg12
F0.4567828950329691
sg13
F0.06175664536362788
sg14
F-0.0339594496849806
sg15
F-0.8614753592066567
sg16
F-0.05901100165976806
sg17
F-0.27649512737893417
sg18
F-0.4273735007121174
sg19
F-0.8984672327075168
sg20
F-0.03616307256388849
sg21
F5.629786633677067
sg22
F-0.8109664953734413
sg23
F0.09582903695701411
sg24
F-0.5761977435950045
sg25
F-0.3517129634473594
sg26
F0.08145864675315316
sg27
F-0.7109014763206929
sg28
F-1.2222083969789288
sg29
F-0.8464123508890217
sg30
F-0.4808951621673116
ssS'DEFFNER JOSEPH M'
p139
(dp140
g3
F-0.40802780911988096
sg4
F-0.2800859438637654
sg5
F-0.18645784310239613
sg6
F-0.541707170895676
sg7
I00
sg8
F-0.1715964574143527
sg9
F-0.2674300423703435
sg10
F-0.6316094536425151
sg11
F0.696969833835615
sg12
F0.48155378274966965
sg13
F-0.014396678950947416
sg14
F-0.0339594496849806
sg15
F-0.4273215827735795
sg16
F-0.05901100165976806
sg17
F-0.20541598297085084
sg18
F-0.38094912531106406
sg19
F-0.16042230729862578
sg20
F-0.6367614315318307
sg21
F-0.18622486001898897
sg22
F-0.40929493628852615
sg23
F0.14504710827599582
sg24
F-0.6062088371598093
sg25
F-0.31926591780215796
sg26
F0.05249629349232129
sg27
F-0.627109896110714
sg28
F-0.28564468759893186
sg29
F-0.3547465685766031
sg30
F-0.532586566399006
ssS'KISHKILL JOSEPH G'
p141
(dp142
g3
F-0.7574179780686766
sg4
F-0.2800859438637654
sg5
F1.6335445018136512
sg6
F-0.5667900775261815
sg7
I00
sg8
F0.2674447328911845
sg9
F-0.7510341545353315
sg10
F-0.7087578511423086
sg11
F-0.7742755461867982
sg12
F0.4309795567162365
sg13
F0.06175664536362788
sg14
F-0.0339594496849806
sg15
F-0.8614753592066567
sg16
F-0.05901100165976806
sg17
F-0.27649512737893417
sg18
F0.4180813603025568
sg19
F1.1641968810061076
sg20
F-0.03616307256388849
sg21
F-0.18622486001898897
sg22
F-0.8109664953734413
sg23
F0.09582903695701411
sg24
F-0.5026724750518666
sg25
F-0.3517129634473594
sg26
F0.0005155975387468824
sg27
F-0.09983433521903888
sg28
F-0.43047693776503526
sg29
F-0.5756595297740338
sg30
F-0.5348578514122511
ssS'WHALLEY LAWRENCE G'
p143
(dp144
g3
F2.1879313593302046
sg4
F-0.2800859438637654
sg5
F0.2084862468436473
sg6
F0.7233666790039149
sg7
I00
sg8
F-4.910090954704475
sg9
F0.4146751502549597
sg10
F0.8286021114301869
sg11
F1.6053039380233656
sg12
F0.48155378274966965
sg13
F-1.2327329285077329
sg14
F-0.0339594496849806
sg15
F2.2216456618398337
sg16
F-0.05901100165976806
sg17
F0.2575589846601784
sg18
F0.11952682525655468
sg19
F0.12702266292981176
sg20
F1.7686501269345474
sg21
F-0.18622486001898897
sg22
F1.1973913000511347
sg23
F0.5281955888527251
sg24
F0.09417179210107572
sg25
F-0.15703068957615052
sg26
F0.041216380191389033
sg27
F0.9410137294269
sg28
F1.096761533178662
sg29
F1.1664959727517807
sg30
F-0.105778679638588
ssS'MCCARTY DANNY J'
p145
(dp146
g3
F-0.05619093030449712
sg4
F-0.2800859438637654
sg5
F-1.2005179644997563
sg6
F-1.067475027729477
sg7
I00
sg8
F-0.26989033550872377
sg9
F-0.7510341545353315
sg10
F-0.9333512047812967
sg11
F-0.4544395940080127
sg12
F0.48155378274966965
sg13
F-0.24637414544481487
sg14
F-0.0339594496849806
sg15
F-0.46192804321389724
sg16
F-0.05901100165976806
sg17
F-0.06998139700409746
sg18
F-0.4273735007121174
sg19
F-0.8984672327075168
sg20
F-0.32069868291338693
sg21
F-0.18622486001898897
sg22
F-0.8109664953734413
sg23
F0.33826259108761336
sg24
F-0.5352565531312019
sg25
F-0.33548944062475866
sg26
F0.08145864675315316
sg27
F-0.6550400289964823
sg28
F-1.2222083969789288
sg29
F-0.8847805924698869
sg30
F-0.44802478772974275
ssS'MCCONNELL MICHAEL S'
p147
(dp148
g3
F0.8716014511057502
sg4
F-0.2800859438637654
sg5
F0.7816082959474357
sg6
F0.10829840343916033
sg7
I00
sg8
F0.708234718321164
sg9
F0.04849337968942231
sg10
F-0.14551754160262
sg11
F0.4027207578311323
sg12
F0.48155378274966965
sg13
F0.6715381121324789
sg14
F-0.0339594496849806
sg15
F0.8601960476991513
sg16
F-0.05901100165976806
sg17
F2.3572753316340997
sg18
F-0.42639243536884774
sg19
F0.5441476548860307
sg20
F-0.23573007538014012
sg21
F-0.18622486001898897
sg22
F-0.07456863705109681
sg23
F1.446403433315104
sg24
F-0.25813566239912594
sg25
F1.2219687503449124
sg26
F0.024847564479710496
sg27
F0.16242486864433914
sg28
F0.43643552258606133
sg29
F0.036739564816874216
sg30
F-0.3227322737078706
ssS'DELAINEY DAVID W'
p149
(dp150
g3
F0.7561167454027868
sg4
F-0.2800859438637654
sg5
F0.8987857615679926
sg6
F0.1455064149073543
sg7
I01
sg8
F0.5710532236014931
sg9
F1.1164475936599167
sg10
F0.6572235605868916
sg11
F0.07009136756519546
sg12
F0.48155378274966965
sg13
F-0.04704494376110077
sg14
F-0.0339594496849806
sg15
F0.787837084960305
sg16
F-0.05901100165976806
sg17
F2.6713683075995487
sg18
F-0.4243558163877269
sg19
F0.6294307974223485
sg20
F-0.4169947866915703
sg21
F-0.18622486001898897
sg22
F1.1973913000511347
sg23
F-2.4422729202724724
sg24
F-0.1974452659381723
sg25
F4.588349736034566
sg26
F0.021500884059189637
sg27
F0.07078305246790524
sg28
F0.43700349219455586
sg29
F1.1973709790209348
sg30
F-0.23541196462719352
ssS'SULLIVAN-SHAKLOVITZ COLLEEN'
p151
(dp152
g3
F-0.7574179780686766
sg4
F0.020217974490325155
sg5
F-1.2005179644997563
sg6
F-0.5748650699128331
sg7
I00
sg8
F-0.4304825910067646
sg9
F0.04849337968942231
sg10
F-0.5983757932576491
sg11
F-0.7742755461867982
sg12
F0.48155378274966965
sg13
F0.06175664536362788
sg14
F-0.0339594496849806
sg15
F-0.8614753592066567
sg16
F-0.05901100165976806
sg17
F-0.27649512737893417
sg18
F-0.4270791811091365
sg19
F-0.8984672327075168
sg20
F-0.03616307256388849
sg21
F-0.18622486001898897
sg22
F-0.7440212355259556
sg23
F0.09582903695701411
sg24
F-0.4638636863210922
sg25
F-0.3517129634473594
sg26
F0.08145864675315316
sg27
F-0.7109014763206929
sg28
F-0.4825801977698888
sg29
F-0.44652872449010406
sg30
F-0.3567969744459937
ssS'WROBEL BRUCE'
p153
(dp154
g3
F-0.7574179780686766
sg4
F-0.2800859438637654
sg5
F-1.2005179644997563
sg6
F-1.1120141005788702
sg7
I00
sg8
F-0.24160839749767685
sg9
F-0.7510341545353315
sg10
F-0.9815477055609826
sg11
F-0.7742755461867982
sg12
F0.48155378274966965
sg13
F0.06175664536362788
sg14
F-0.0339594496849806
sg15
F-0.8614753592066567
sg16
F-0.05901100165976806
sg17
F-0.27649512737893417
sg18
F-0.4273735007121174
sg19
F-0.8984672327075168
sg20
F-0.03616307256388849
sg21
F-0.18622486001898897
sg22
F-0.8109664953734413
sg23
F0.09582903695701411
sg24
F-0.6085846005420185
sg25
F-0.3517129634473594
sg26
F0.08145864675315316
sg27
F-0.7109014763206929
sg28
F-1.2222083969789288
sg29
F-0.8847805924698869
sg30
F-0.5166737172257639
ssS'LINDHOLM TOD A'
p155
(dp156
g3
F-0.7574179780686766
sg4
F0.05665515133281376
sg5
F0.20578215148317291
sg6
F-0.24923033927532678
sg7
I00
sg8
F-0.4329022223605978
sg9
F-0.49866805346190385
sg10
F-0.5016268241078865
sg11
F-0.7742755461867982
sg12
F0.48155378274966965
sg13
F0.06175664536362788
sg14
F-0.0339594496849806
sg15
F-0.8614753592066567
sg16
F-0.05901100165976806
sg17
F-0.27649512737893417
sg18
F-0.42259534913285973
sg19
F0.12505459040974287
sg20
F-0.03616307256388849
sg21
F-0.18622486001898897
sg22
F-0.6770759756784697
sg23
F0.09582903695701411
sg24
F-0.26252149599017593
sg25
F-0.3517129634473594
sg26
F0.04129361127801644
sg27
F-0.40674205152979775
sg28
F-0.14780527925261297
sg29
F-0.5006732369399817
sg30
F-0.20165924209868116
ssS'MEYER JEROME J'
p157
(dp158
g3
F-0.7574179780686766
sg4
F-0.2800859438637654
sg5
F-1.1481169814332661
sg6
F-1.1220120212107116
sg7
I00
sg8
F-0.2256657995411251
sg9
F-0.7510341545353315
sg10
F-0.9917466316742775
sg11
F-0.7742755461867982
sg12
F0.4435592043342857
sg13
F0.06175664536362788
sg14
F-0.0339594496849806
sg15
F-0.8614753592066567
sg16
F-0.05901100165976806
sg17
F-0.27649512737893417
sg18
F-0.4273735007121174
sg19
F-0.8603291787375336
sg20
F-0.03616307256388849
sg21
F1.7963230254952607
sg22
F-0.8109664953734413
sg23
F0.09582903695701411
sg24
F-0.6250449341592068
sg25
F-0.3517129634473594
sg26
F0.079962033533914
sg27
F-0.7109014763206929
sg28
F-1.2222083969789288
sg29
F-0.8838373052248767
sg30
F-0.5348578514122511
ssS'BUTTS ROBERT H'
p159
(dp160
g3
F-0.7574179780686766
sg4
F-0.2800859438637654
sg5
F-0.9712788893460265
sg6
F-0.3702557775963261
sg7
I00
sg8
F-0.05180758594933211
sg9
F-0.49866805346190385
sg10
F-0.5933757383085916
sg11
F-0.7742755461867982
sg12
F0.40724111959956805
sg13
F0.06175664536362788
sg14
F-0.0339594496849806
sg15
F-0.8614753592066567
sg16
F-0.05901100165976806
sg17
F-0.27649512737893417
sg18
F-0.15366353709058217
sg19
F-0.7316243280782547
sg20
F-0.03616307256388849
sg21
F-0.18622486001898897
sg22
F-0.30887704651729736
sg23
F0.09582903695701411
sg24
F-0.575636840542614
sg25
F-0.3517129634473594
sg26
F0.07491139877870383
sg27
F-0.4641820532265526
sg28
F-0.033943275898498916
sg29
F-0.32714829047793587
sg30
F-0.5348578514122511
ssS'OLSON CINDY K'
p161
(dp162
g3
F-0.17803708166058974
sg4
F-0.15184793845253255
sg5
F0.3535085863112513
sg6
F-0.026482010652379977
sg7
I00
sg8
F0.14771350499073962
sg9
F-0.6068249539219442
sg10
F-0.40874054561198264
sg11
F-0.5184067844437698
sg12
F0.48155378274966965
sg13
F0.16776409347007856
sg14
F-0.0339594496849806
sg15
F-0.188222401549566
sg16
F-0.05901100165976806
sg17
F-0.22654762049757832
sg18
F-0.425607583094232
sg19
F0.23257163330791983
sg20
F-0.3906295796234869
sg21
F-0.18622486001898897
sg22
F-0.30887704651729736
sg23
F0.004444956564796749
sg24
F-0.316641364541277
sg25
F-0.23003654227785386
sg26
F0.037074428311272466
sg27
F-0.13800852978890774
sg28
F0.2730420256143569
sg29
F-0.3052325396321015
sg30
F-0.32089935271433007
ssS'MCDONALD REBECCA'
p163
(dp164
g3
F-0.3199462539227056
sg4
F-0.2800859438637654
sg5
F-1.2005179644997563
sg6
F-1.000469988382455
sg7
I00
sg8
F0.17681376929627055
sg9
F-0.7510341545353315
sg10
F-0.8608438932337092
sg11
F-0.08342988948062156
sg12
F0.48155378274966965
sg13
F0.05226961478323195
sg14
F-0.0339594496849806
sg15
F-0.2951878247287299
sg16
F-0.05901100165976806
sg17
F-0.2640082506585952
sg18
F-0.4273735007121174
sg19
F-0.8984672327075168
sg20
F-0.4360383362136673
sg21
F-0.18622486001898897
sg22
F-0.8109664953734413
sg23
F0.10140302191265227
sg24
F-0.4249410843153969
sg25
F-0.34360120203605904
sg26
F0.08145864675315316
sg27
F-0.1590779770727464
sg28
F-1.2222083969789288
sg29
F-0.8847805924698869
sg30
F-0.4358794642666974
ssS'CUMBERLAND MICHAEL S'
p165
(dp166
g3
F-0.7574179780686766
sg4
F-0.2800859438637654
sg5
F-0.6561908768021006
sg6
F-0.5967751167613614
sg7
I00
sg8
F-0.14267513340209656
sg9
F-0.3544588528485166
sg10
F-0.7433145638709818
sg11
F-0.7742755461867982
sg12
F0.48155378274966965
sg13
F0.06175664536362788
sg14
F-0.0339594496849806
sg15
F-0.8614753592066567
sg16
F-0.05901100165976806
sg17
F-0.27649512737893417
sg18
F-0.4260781311014669
sg19
F-0.5022995535325717
sg20
F-0.03616307256388849
sg21
F-0.18622486001898897
sg22
F-0.5933944008691123
sg23
F0.09582903695701411
sg24
F-0.6004437570417042
sg25
F-0.3517129634473594
sg26
F0.0659122377477232
sg27
F-0.5880554447986703
sg28
F-0.382072295850698
sg29
F-0.5304641864589424
sg30
F-0.5348578514122511
ssS'GAHN ROBERT S'
p167
(dp168
g3
F-0.7574179780686766
sg4
F-0.15942842891600473
sg5
F0.01949190624400475
sg6
F-0.5692027518886541
sg7
I00
sg8
F-0.13951631819549576
sg9
F-0.7510341545353315
sg10
F-0.708009903051709
sg11
F-0.7742755461867982
sg12
F0.48052133214963755
sg13
F0.06175664536362788
sg14
F-0.0339594496849806
sg15
F-0.8614753592066567
sg16
F-0.05901100165976806
sg17
F-0.27649512737893417
sg18
F-0.2883038547283022
sg19
F-0.010529648878245156
sg20
F-0.03616307256388849
sg21
F-0.18622486001898897
sg22
F-0.4696326989890652
sg23
F0.09582903695701411
sg24
F-0.587350852992158
sg25
F-0.3517129634473594
sg26
F0.04661420694864492
sg27
F-0.571850449873937
sg28
F-0.3497707282763975
sg29
F-0.4898431942608676
sg30
F-0.5239788693287275
ssS'MCCLELLAN GEORGE'
p169
(dp170
g3
F0.09599442339728922
sg4
F-0.2800859438637654
sg5
F4.372427683682253
sg6
F-0.3269169961039731
sg7
I00
sg8
F-0.08847585571648452
sg9
F-0.7510341545353315
sg10
F-0.5385441721913599
sg11
F-0.10901676565492441
sg12
F0.35769934416616694
sg13
F-0.009638464710653194
sg14
F-0.0339594496849806
sg15
F0.29390851322122447
sg16
F-0.05901100165976806
sg17
F-0.22942920743304115
sg18
F-0.3336508750394317
sg19
F3.157588388089921
sg20
F-0.4713132385986739
sg21
F-0.18622486001898897
sg22
F-0.20845915674606855
sg23
F0.1557919661990608
sg24
F-0.5129044304380704
sg25
F-0.3517129634473594
sg26
F-0.0777090565814858
sg27
F-0.4503123971620988
sg28
F-0.025323769119986034
sg29
F-0.3064578044217615
sg30
F-0.4686242370874099
ssS'HERMANN ROBERT J'
p171
(dp172
g3
F-0.7574179780686766
sg4
F-0.2800859438637654
sg5
F-0.022482474892007637
sg6
F-0.34908829075259823
sg7
I00
sg8
F-0.038661376625377025
sg9
F-0.5347203536152506
sg10
F-0.5664362624214165
sg11
F-0.7742755461867982
sg12
F0.20411984032262362
sg13
F0.06175664536362788
sg14
F-0.0339594496849806
sg15
F-0.8614753592066567
sg16
F-0.05901100165976806
sg17
F-0.27649512737893417
sg18
F0.32921137450371035
sg19
F-0.041079098896971894
sg20
F-0.03616307256388849
sg21
F-0.18622486001898897
sg22
F-0.3423496764410403
sg23
F0.09582903695701411
sg24
F-0.5459988936192856
sg25
F-0.3517129634473594
sg26
F0.04781302823025769
sg27
F-0.4269554639012799
sg28
F-0.028731586770953173
sg29
F-0.31579946174078033
sg30
F-0.5103518127436222
ssS'SCRIMSHAW MATTHEW'
p173
(dp174
g3
F-0.7574179780686766
sg4
F-0.2800859438637654
sg5
F-1.2005179644997563
sg6
F-1.0674300431947576
sg7
I00
sg8
F-0.3246390289606743
sg9
F-0.7510341545353315
sg10
F-0.9333025262385256
sg11
F-0.7742755461867982
sg12
F0.48155378274966965
sg13
F0.06175664536362788
sg14
F-0.0339594496849806
sg15
F-0.8614753592066567
sg16
F-0.05901100165976806
sg17
F-0.27649512737893417
sg18
F-0.4273735007121174
sg19
F-0.8984672327075168
sg20
F-0.03616307256388849
sg21
F-0.18622486001898897
sg22
F-0.8109664953734413
sg23
F0.09582903695701411
sg24
F-0.535182491686191
sg25
F-0.3517129634473594
sg26
F0.08145864675315316
sg27
F-0.7109014763206929
sg28
F-1.2222083969789288
sg29
F-0.8847805924698869
sg30
F-0.43558460760943646
ssS'GATHMANN WILLIAM D'
p175
(dp176
g3
F-0.7574179780686766
sg4
F-0.2800859438637654
sg5
F-1.2005179644997563
sg6
F-0.9822179086515272
sg7
I00
sg8
F-0.41910440068782545
sg9
F-0.7510341545353315
sg10
F-0.8410930021912043
sg11
F-0.7742755461867982
sg12
F0.48155378274966965
sg13
F0.06175664536362788
sg14
F-0.12677518219609682
sg15
F-0.8614753592066567
sg16
F-0.05901100165976806
sg17
F-0.27649512737893417
sg18
F-0.4273735007121174
sg19
F-0.9660196183427425
sg20
F-0.03616307256388849
sg21
F-0.18622486001898897
sg22
F-0.8109664953734413
sg23
F0.09582903695701411
sg24
F-0.39489130370184033
sg25
F-0.3517129634473594
sg26
F0.17517162887649307
sg27
F-0.554928843252386
sg28
F-1.2222083969789288
sg29
F-0.8847805924698869
sg30
F-0.30564261188304265
ssS'HAEDICKE MARK E'
p177
(dp178
g3
F1.2043539929617462
sg4
F3.2800169834727035
sg5
F0.6550517608333415
sg6
F-0.03177101716225387
sg7
I00
sg8
F-0.21789071376398636
sg9
F0.6670412513283874
sg10
F0.1824062608344846
sg11
F1.5285433095004572
sg12
F-0.4443661467324577
sg13
F5.562284643295935
sg14
F-0.45667930187127015
sg15
F0.591209468822136
sg16
F-0.05901100165976806
sg17
F1.5878916198655217
sg18
F-0.33220652883961804
sg19
F0.14437781704312805
sg20
F0.11115896005787836
sg21
F-0.18622486001898897
sg22
F-0.041096007127353874
sg23
F1.840687890064606
sg24
F-0.5300316719874092
sg25
F0.14310448264196318
sg26
F-0.2044208674962458
sg27
F-0.4012348345160039
sg28
F0.4777246412451792
sg29
F0.8075517144411646
sg30
F-0.45529491253476934
ssS'BOWEN JR RAYMOND M'
p179
(dp180
g3
F0.1517794083555003
sg4
F-0.2800859438637654
sg5
F0.4050569266965109
sg6
F-0.3350011441821552
sg7
I01
sg8
F-0.12418636870374936
sg9
F0.6539859923968574
sg10
F-0.2032935911407794
sg11
F1.0168057860144004
sg12
F0.4807284167709492
sg13
F0.22345752030483199
sg14
F-0.0339594496849806
sg15
F0.3914358108257563
sg16
F-0.05901100165976806
sg17
F-0.2505608449597686
sg18
F-0.4244284878946358
sg19
F0.2700891238706742
sg20
F-0.20361303889490534
sg21
F-0.18622486001898897
sg22
F0.09279451256761787
sg23
F-0.026148374681145413
sg24
F-0.5952245547307558
sg25
F-0.23003654227785386
sg26
F0.035602167236465365
sg27
F-0.561993346690591
sg28
F0.04368681019053251
sg29
F0.2859257083761385
sg30
F-0.5348578514122511
ssS'GILLIS JOHN'
p181
(dp182
g3
F-0.7574179780686766
sg4
F-0.2800859438637654
sg5
F-1.2005179644997563
sg6
F-1.1158578350479031
sg7
I00
sg8
F-0.19722214206077185
sg9
F-0.7510341545353315
sg10
F-0.9857070770853987
sg11
F-0.7742755461867982
sg12
F0.48155378274966965
sg13
F0.06175664536362788
sg14
F-0.0339594496849806
sg15
F-0.8614753592066567
sg16
F-0.05901100165976806
sg17
F-0.27649512737893417
sg18
F-0.4273735007121174
sg19
F-0.8984672327075168
sg20
F-0.03616307256388849
sg21
F-0.18622486001898897
sg22
F-0.8109664953734413
sg23
F0.09582903695701411
sg24
F-0.6149128315838484
sg25
F-0.3517129634473594
sg26
F0.08145864675315316
sg27
F-0.6660981804730102
sg28
F-1.2222083969789288
sg29
F-0.8847805924698869
sg30
F-0.5335766103612186
ssS'FITZGERALD JAY L'
p183
(dp184
g3
F-0.29939389104336467
sg4
F-0.2800859438637654
sg5
F-0.6190156559004437
sg6
F-0.45586527084651385
sg7
I00
sg8
F0.1966117130208529
sg9
F0.05136891114965325
sg10
F-0.4584838942747045
sg11
F-0.7614821080996468
sg12
F0.48155378274966965
sg13
F0.12806511771987006
sg14
F-0.0339594496849806
sg15
F-0.2928282933350719
sg16
F-0.05901100165976806
sg17
F-0.26112666372313237
sg18
F0.0911631361100261
sg19
F-0.47524298897739065
sg20
F-0.31256592709347814
sg21
F-0.18622486001898897
sg22
F-0.5766580859072409
sg23
F0.03273239061640264
sg24
F-0.4332380957189289
sg25
F-0.28681887215695645
sg26
F0.06485048425048519
sg27
F-0.14566144645879464
sg28
F-0.31728741042737874
sg29
F-0.2643172909294232
sg30
F-0.4480135476266734
ssS'MORAN MICHAEL P'
p185
(dp186
g3
F-0.4285801719992219
sg4
F-0.2800859438637654
sg5
F-1.2005179644997563
sg6
F-1.106120767229212
sg7
I00
sg8
F-0.16793380883151807
sg9
F-0.7510341545353315
sg10
F-0.9751704276517137
sg11
F-0.7742755461867982
sg12
F0.48155378274966965
sg13
F0.03407282717155964
sg14
F-0.0339594496849806
sg15
F-0.7615885302084668
sg16
F-0.05901100165976806
sg17
F-0.2582450767876695
sg18
F-0.4273735007121174
sg19
F-0.8984672327075168
sg20
F-0.08430553597661107
sg21
F-0.18622486001898897
sg22
F-0.8109664953734413
sg23
F0.11907996870393021
sg24
F-0.598881959700509
sg25
F-0.3517129634473594
sg26
F0.08145864675315316
sg27
F-0.6154308387039675
sg28
F-1.2222083969789288
sg29
F-0.8847805924698869
sg30
F-0.5270761712186964
ssS'REDMOND BRIAN L'
p187
(dp188
g3
F0.06027245934510143
sg4
F-0.2800859438637654
sg5
F-0.8426760117969787
sg6
F-0.28774685756085644
sg7
I00
sg8
F1.17578935565038
sg9
F-0.7510341545353315
sg10
F-0.34665844186108147
sg11
F1.8355858235920912
sg12
F0.48155378274966965
sg13
F-1.1063342590371112
sg14
F-0.0339594496849806
sg15
F-0.02541473538716203
sg16
F-0.05901100165976806
sg17
F-0.06421822313317178
sg18
F-0.4273735007121174
sg19
F-0.6380256358850693
sg20
F-0.48040763619919025
sg21
F-0.18622486001898897
sg22
F-0.8109664953734413
sg23
F-0.14011873214919546
sg24
F0.30845154674144365
sg25
F0.04576334570635873
sg26
F0.07123839962279331
sg27
F-0.4856473206562014
sg28
F-0.7821909818860517
sg29
F-0.8358713023031024
sg30
F0.44656508244504084
ssS'BAZELIDES PHILIP J'
p189
(dp190
g3
F-0.7574179780686766
sg4
F0.8497173511725035
sg5
F-1.2005179644997563
sg6
F-0.7840154773708751
sg7
I00
sg8
F-0.4816431654458257
sg9
F-0.615838028960281
sg10
F-0.6200539745743394
sg11
F-0.7742755461867982
sg12
F0.48155378274966965
sg13
F0.06175664536362788
sg14
F-0.0339594496849806
sg15
F-0.8614753592066567
sg16
F-0.05901100165976806
sg17
F-0.27649512737893417
sg18
F-0.42578562828615873
sg19
F-0.8984672327075168
sg20
F-0.03616307256388849
sg21
F-0.18622486001898897
sg22
F-0.8109664953734413
sg23
F0.09582903695701411
sg24
F-0.4357929789537682
sg25
F-0.3517129634473594
sg26
F0.08145864675315316
sg27
F-0.7109014763206929
sg28
F-0.8549910544244458
sg29
F-0.5075814675167586
sg30
F-0.3257865756686556
ssS'BELDEN TIMOTHY N'
p191
(dp192
g3
F3.1529137307125925
sg4
F3.2577177348607393
sg5
F-0.7777290007066658
sg6
F-0.45159041525981736
sg7
I01
sg8
F-0.28382177786467694
sg9
F-0.7510341545353315
sg10
F0.6797736237265625
sg11
F2.142628337683725
sg12
F-1.8314863170922544
sg13
F-0.1659707341313881
sg14
F-0.0339594496849806
sg15
F3.480848915588668
sg16
F-0.05901100165976806
sg17
F0.1884008982090703
sg18
F-0.044579971645035917
sg19
F-0.5907564346372889
sg20
F4.191181229255309
sg21
F-0.18622486001898897
sg22
F2.703658977166968
sg23
F-0.42801517768474023
sg24
F-0.4936385167777714
sg25
F0.5243572689730805
sg26
F0.06938346199262518
sg27
F-0.6178134396712096
sg28
F-0.249848970993173
sg29
F1.5278727807360706
sg30
F-0.4102840504924524
ssS'DURAN WILLIAM D'
p193
(dp194
g3
F-0.3150528341895292
sg4
F-0.2800859438637654
sg5
F-0.5723639206273945
sg6
F-0.42261657375007483
sg7
I00
sg8
F-0.35549747643963275
sg9
F0.8427918882999348
sg10
F-0.26141266482687414
sg11
F0.5818288910512522
sg12
F0.48155378274966965
sg13
F0.07414960959937543
sg14
F-0.0339594496849806
sg15
F-0.3903555909396037
sg16
F-0.05901100165976806
sg17
F-0.2649687796370828
sg18
F-0.42452477764129004
sg19
F-0.4412893054104367
sg20
F-0.5927459009380343
sg21
F-0.18622486001898897
sg22
F-0.30887704651729736
sg23
F0.0795101940783109
sg24
F-0.4309104841068786
sg25
F-0.3273776792134583
sg26
F0.06351807406227367
sg27
F-0.5992205267922007
sg28
F-0.2648751749555041
sg29
F0.033186998581714554
sg30
F-0.3451002095147389
ssS'THORN TERENCE H'
p195
(dp196
g3
F-0.6272530131661841
sg4
F-0.25271763414954046
sg5
F-0.07636949234578559
sg6
F-0.16285956160093054
sg7
I00
sg8
F-4.275223070325783
sg9
F-0.46261575330855703
sg10
F-0.35501478645778184
sg11
F-0.7742755461867982
sg12
F0.48155378274966965
sg13
F0.0020178797912702756
sg14
F-0.0339594496849806
sg15
F-0.8040600952943113
sg16
F-0.05901100165976806
sg17
F-0.23711343926094205
sg18
F0.34772080731339733
sg19
F-0.08029870623383989
sg20
F-0.06383551216332749
sg21
F-0.18622486001898897
sg22
F-0.8109664953734413
sg23
F0.1460021002003593
sg24
F-0.055056222453929535
sg25
F-0.3517129634473594
sg26
F0.04935208375836416
sg27
F-0.4950790648768857
sg28
F-0.21307180290393563
sg29
F-0.4850772036617174
sg30
F0.04707574339917282
ssS'FASTOW ANDREW S'
p197
(dp198
g3
F-0.7574179780686766
sg4
F-0.2800859438637654
sg5
F0.16178578913167066
sg6
F0.2231971433188487
sg7
I01
sg8
F0.8161689144280697
sg9
F1.7525168831734084
sg10
F-0.15412176643618375
sg11
F-0.7742755461867982
sg12
F-0.8917987282171849
sg13
F0.06175664536362788
sg14
F-0.0339594496849806
sg15
F-0.8614753592066567
sg16
F-0.05901100165976806
sg17
F-0.27649512737893417
sg18
F0.07671967411188993
sg19
F0.09303351859673041
sg20
F-0.03616307256388849
sg21
F-0.18622486001898897
sg22
F0.05932188264387493
sg23
F0.09582903695701411
sg24
F-0.41274981328889804
sg25
F-0.3517129634473594
sg26
F0.04255018193071096
sg27
F0.34919467216202105
sg28
F0.7802161672156264
sg29
F0.1782629104340192
sg30
F-0.5348578514122511
ssS'FOY JOE'
p199
(dp200
g3
F-0.7295254855895711
sg4
F0.019825254261699475
sg5
F-1.2005179644997563
sg6
F-1.0973327581166565
sg7
I00
sg8
F-0.26664677068055403
sg9
F-0.7510341545353315
sg10
F-0.913272350392067
sg11
F-0.7742755461867982
sg12
F0.48155378274966965
sg13
F0.042815085548002244
sg14
F-0.0339594496849806
sg15
F-0.8599023382775514
sg16
F-0.05901100165976806
sg17
F-0.2640082506585952
sg18
F-0.4273735007121174
sg19
F-0.8984672327075168
sg20
F-0.03692122159401007
sg21
F-0.18622486001898897
sg22
F-0.8109664953734413
sg23
F0.11173756920490409
sg24
F-0.5844135950124704
sg25
F-0.3517129634473594
sg26
F0.08145864675315316
sg27
F-0.7109014763206929
sg28
F-1.2222083969789288
sg29
F-0.8050747936707949
sg30
F-0.4899714146969343
ssS'CALGER CHRISTOPHER F'
p201
(dp202
g3
F0.5138924686105546
sg4
F-0.2800859438637654
sg5
F-0.32794780574775884
sg6
F-0.4500690701961048
sg7
I01
sg8
F-0.17616623892286065
sg9
F-0.20981125626526465
sg10
F-0.5100614211432457
sg11
F1.7716186331563342
sg12
F0.221459461724314
sg13
F0.13737867217282132
sg14
F-0.0339594496849806
sg15
F0.8594095372345986
sg16
F-0.05901100165976806
sg17
F-0.13817895447671796
sg18
F-0.4264905419031747
sg19
F-0.2634003721324998
sg20
F0.4963840956978635
sg21
F-0.18622486001898897
sg22
F0.025849252720132
sg23
F0.01368294262734596
sg24
F-0.61013480359949
sg25
F-0.14891892816485017
sg26
F0.05653735791693359
sg27
F-0.6364477068938105
sg28
F-0.1308479786214005
sg29
F-0.16589265621528484
sg30
F-0.5348578514122511
ssS'RICE KENNETH D'
p203
(dp204
g3
F-0.31456349221621155
sg4
F-0.2800859438637654
sg5
F-0.05675871067748032
sg6
F1.6587951458818293
sg7
I01
sg8
F0.12779662892066185
sg9
F1.5808444823952077
sg10
F0.9061432243498714
sg11
F-0.2369511465264386
sg12
F-2.990716302129423
sg13
F0.07549018549014581
sg14
F-0.0339594496849806
sg15
F-0.18193031783314456
sg16
F-0.05901100165976806
sg17
F-0.25920560576615714
sg18
F-0.10972816080115735
sg19
F-0.06602574786757463
sg20
F-0.4245342378362794
sg21
F-0.18622486001898897
sg22
F0.36057555195756136
sg23
F0.0765180462850853
sg24
F2.0419407088974872
sg25
F-0.31926591780215796
sg26
F0.04879198443642668
sg27
F0.9127669404244836
sg28
F0.6890593169306893
sg29
F-0.6632988523060321
sg30
F2.0522185110603184
ssS'KAMINSKI WINCENTY J'
p205
(dp206
g3
F1.4969804930056954
sg4
F-0.2800859438637654
sg5
F0.8357145643763872
sg6
F-0.2926350852250585
sg7
I00
sg8
F-0.28272399209747817
sg9
F-0.28456642167923235
sg10
F-0.6032073158709501
sg11
F-0.24974458461359
sg12
F0.48155378274966965
sg13
F6.611174939544009
sg14
F-0.0339594496849806
sg15
F-0.40293975837244655
sg16
F-0.05901100165976806
sg17
F13.524385235531083
sg18
F-0.41889091906818055
sg19
F0.5835268356704718
sg20
F-0.3887271272649174
sg21
F-0.18622486001898897
sg22
F-0.5431854559834979
sg23
F15.911220783649856
sg24
F-0.5095709555584765
sg25
F1.035398237885004
sg26
F0.023302246971607207
sg27
F-0.6364477068938105
sg28
F0.027783661152685865
sg29
F-0.4081723233349084
sg30
F-0.42376250245907116
ssS'LOCKHART EUGENE E'
p207
(dp208
g3
F-0.7574179780686766
sg4
F-0.2800859438637654
sg5
F-1.2005179644997563
sg6
F-1.1220120212107116
sg7
I00
sg8
F-0.2256657995411251
sg9
F-0.7510341545353315
sg10
F-0.9923666283337399
sg11
F-0.7742755461867982
sg12
F0.48155378274966965
sg13
F0.06175664536362788
sg14
F-0.0339594496849806
sg15
F-0.8614753592066567
sg16
F-0.05901100165976806
sg17
F-0.27649512737893417
sg18
F-0.4273735007121174
sg19
F-0.8984672327075168
sg20
F-0.03616307256388849
sg21
F-0.18622486001898897
sg22
F-0.8109664953734413
sg23
F0.09582903695701411
sg24
F-0.6250449341592068
sg25
F-0.3517129634473594
sg26
F0.08145864675315316
sg27
F-0.7109014763206929
sg28
F-1.2222083969789288
sg29
F-0.8847805924698869
sg30
F-0.5348578514122511
ssS'COX DAVID'
p209
(dp210
g3
F-0.7075050967902773
sg4
F-0.2800859438637654
sg5
F-0.5217900290206843
sg6
F-0.2190066449997156
sg7
I00
sg8
F-0.08017525431927988
sg9
F-0.7510341545353315
sg10
F-0.6363639496985432
sg11
F-0.7742755461867982
sg12
F0.44068181801711376
sg13
F0.051413346800567285
sg14
F-0.0339594496849806
sg15
F-0.8056331162234167
sg16
F-0.05901100165976806
sg17
F-0.24479767108884296
sg18
F-0.42647600760179294
sg19
F-0.4044810301702297
sg20
F-0.06307736313320585
sg21
F-0.18622486001898897
sg22
F-0.2754044165935544
sg23
F0.09487404503265061
sg24
F-0.5664070808444085
sg25
F-0.31926591780215796
sg26
F0.06207364400967464
sg27
F-0.48753957726370856
sg28
F0.20583986153728492
sg29
F-0.4017820017476048
sg30
F-0.5194940682040591
ssS'OVERDYKE JR JERE C'
p211
(dp212
g3
F-0.7574179780686766
sg4
F-0.2800859438637654
sg5
F-0.7416987571198044
sg6
F-0.3348629610912185
sg7
I00
sg8
F-0.7343802927936947
sg9
F-0.5551461447901308
sg10
F-0.3521212566537387
sg11
F-0.7742755461867982
sg12
F0.48155378274966965
sg13
F0.06175664536362788
sg14
F-0.0339594496849806
sg15
F-0.8614753592066567
sg16
F-0.05901100165976806
sg17
F-0.27649512737893417
sg18
F-0.42705374608171837
sg19
F-0.564533198086101
sg20
F-0.03616307256388849
sg21
F-0.18622486001898897
sg22
F-0.8109664953734413
sg23
F0.09582903695701411
sg24
F0.23950933292167703
sg25
F-0.3517129634473594
sg26
F0.06835440994648168
sg27
F0.49488247997897233
sg28
F-0.7908195761783006
sg29
F-0.7752404292577123
sg30
F0.15347795722428267
ssS'PEREIRA PAULO V. FERRAZ'
p213
(dp214
g3
F-0.7574179780686766
sg4
F-0.2800859438637654
sg5
F-0.5198167702441219
sg6
F-1.1220120212107116
sg7
I00
sg8
F-0.2256657995411251
sg9
F-0.7510341545353315
sg10
F-0.9843127247267206
sg11
F-0.7742755461867982
sg12
F0.38123168749703246
sg13
F0.06175664536362788
sg14
F-0.0339594496849806
sg15
F-0.8614753592066567
sg16
F-0.05901100165976806
sg17
F-0.27649512737893417
sg18
F-0.4273735007121174
sg19
F-0.4030448691420713
sg20
F-0.03616307256388849
sg21
F5.0485577355142555
sg22
F-0.8109664953734413
sg23
F0.09582903695701411
sg24
F-0.6250449341592068
sg25
F-0.3517129634473594
sg26
F0.06201728618970329
sg27
F-0.7109014763206929
sg28
F-1.2222083969789288
sg29
F-0.8725270675047183
sg30
F-0.5348578514122511
ssS'STABLER FRANK'
p215
(dp216
g3
F-0.7574179780686766
sg4
F-0.2800859438637654
sg5
F-0.7982167862756655
sg6
F-0.42424807734505776
sg7
I00
sg8
F-0.008424601920760676
sg9
F-0.7510341545353315
sg10
F-0.632029514933032
sg11
F-0.7742755461867982
sg12
F0.48155378274966965
sg13
F0.06175664536362788
sg14
F-0.0339594496849806
sg15
F-0.8614753592066567
sg16
F-0.05901100165976806
sg17
F-0.27649512737893417
sg18
F0.21953190270151143
sg19
F-0.6056676867938469
sg20
F-0.03616307256388849
sg21
F-0.18622486001898897
sg22
F-0.47624019613601204
sg23
F0.09582903695701411
sg24
F-0.5645021873522045
sg25
F-0.3517129634473594
sg26
F0.06996860923454994
sg27
F-0.4085811382669722
sg28
F-0.13396953958968638
sg29
F-0.39709231611388085
sg30
F-0.5348578514122511
ssS'SKILLING JEFFREY K'
p217
(dp218
g3
F1.0174253591544073
sg4
F-0.2800859438637654
sg5
F-0.48585723031167777
sg6
F3.819996567841894
sg7
I01
sg8
F-0.3465431199473764
sg9
F2.0177824972417038
sg10
F3.539385395056701
sg11
F0.35154700548252665
sg12
F0.48155378274966965
sg13
F0.4929238443706337
sg14
F-0.0339594496849806
sg15
F0.7445790094099078
sg16
F-0.05901100165976806
sg17
F-0.17275799770227201
sg18
F-0.38718252381617163
sg19
F-0.37832871515129646
sg20
F-0.28843179363202953
sg21
F-0.18622486001898897
sg22
F2.9379680560857673
sg23
F-0.08204419082806985
sg24
F2.462071765456149
sg25
F-0.1083601211083483
sg26
F0.061047375065751926
sg27
F3.332177999674225
sg28
F3.827077772592326
sg29
F2.922888052275278
sg30
F1.9810954519003126
ssS'BLAKE JR. NORMAN P'
p219
(dp220
g3
F-0.7574179780686766
sg4
F-0.2800859438637654
sg5
F-1.1693599648056416
sg6
F-1.1220120212107116
sg7
I00
sg8
F-0.2256657995411251
sg9
F-0.7510341545353315
sg10
F-0.9919979738811817
sg11
F-0.7742755461867982
sg12
F0.3688125552313875
sg13
F0.06175664536362788
sg14
F-0.0339594496849806
sg15
F-0.8614753592066567
sg16
F-0.05901100165976806
sg17
F-0.27649512737893417
sg18
F-0.4273735007121174
sg19
F-0.8757900727690657
sg20
F-0.03616307256388849
sg21
F5.696585044673896
sg22
F-0.8109664953734413
sg23
F0.09582903695701411
sg24
F-0.6250449341592068
sg25
F-0.3517129634473594
sg26
F0.08056874981805001
sg27
F-0.7109014763206929
sg28
F-1.2222083969789288
sg29
F-0.8842197071205758
sg30
F-0.5348578514122511
ssS'SHERRICK JEFFREY B'
p221
(dp222
g3
F-0.4574513484249627
sg4
F-0.2800859438637654
sg5
F-1.2005179644997563
sg6
F-0.9903303592802188
sg7
I00
sg8
F-0.23101110002350805
sg9
F-0.7510341545353315
sg10
F-0.8498716252750979
sg11
F-0.27533146078789283
sg12
F0.48155378274966965
sg13
F0.29718905620012703
sg14
F-0.0339594496849806
sg15
F-0.40293975837244655
sg16
F-0.05901100165976806
sg17
F-0.25248190291674383
sg18
F-0.4273735007121174
sg19
F-0.8984672327075168
sg20
F-0.38230939007366976
sg21
F-0.18622486001898897
sg22
F-0.8109664953734413
sg23
F-0.0595994830575762
sg24
F-0.40824744531552265
sg25
F-0.20570125804395276
sg26
F0.08145864675315316
sg27
F-0.4710468742628415
sg28
F-1.2222083969789288
sg29
F-0.8847805924698869
sg30
F-0.3484199608863825
ssS'PRENTICE JAMES'
p223
(dp224
g3
F-0.7574179780686766
sg4
F0.6511362224574354
sg5
F-1.2005179644997563
sg6
F-1.0433221411798643
sg7
I00
sg8
F-0.24940594182837475
sg9
F-0.7510341545353315
sg10
F-0.7445492700103449
sg11
F-0.7742755461867982
sg12
F0.48155378274966965
sg13
F0.06175664536362788
sg14
F-0.0339594496849806
sg15
F-0.8614753592066567
sg16
F-0.05901100165976806
sg17
F-0.27649512737893417
sg18
F-0.4273735007121174
sg19
F-0.8984672327075168
sg20
F-0.03616307256388849
sg21
F-0.18622486001898897
sg22
F-0.8109664953734413
sg23
F0.09582903695701411
sg24
F-0.4954918275383065
sg25
F-0.3517129634473594
sg26
F0.08145864675315316
sg27
F-0.5875420601617913
sg28
F-1.2222083969789288
sg29
F-0.6372946463299183
sg30
F-0.4190284585837837
ssS'GRAY RODNEY'
p225
(dp226
g3
F-0.7574179780686766
sg4
F-0.1256627396791673
sg5
F-1.2005179644997563
sg6
F-1.1037555858105665
sg7
I00
sg8
F-0.2256657995411251
sg9
F-0.2237692647926344
sg10
F-0.6618579674570156
sg11
F-0.7742755461867982
sg12
F0.48155378274966965
sg13
F0.06175664536362788
sg14
F-0.0339594496849806
sg15
F-0.8614753592066567
sg16
F-0.05901100165976806
sg17
F-0.27649512737893417
sg18
F0.8095555008699018
sg19
F-0.8984672327075168
sg20
F-0.03616307256388849
sg21
F-0.18622486001898897
sg22
F-0.8109664953734413
sg23
F0.09582903695701411
sg24
F-0.6250449341592068
sg25
F-0.3517129634473594
sg26
F0.08145864675315316
sg27
F-0.7109014763206929
sg28
F-1.1921514452973987
sg29
F-0.381931747379687
sg30
F-0.5348578514122511
ssS'PICKERING MARK R'
p227
(dp228
g3
F-0.31798888602943504
sg4
F-0.2800859438637654
sg5
F-0.42941228481420785
sg6
F0.6878640135566664
sg7
I00
sg8
F-0.2288964065489582
sg9
F-0.7510341545353315
sg10
F-0.5904326212059654
sg11
F-0.6847214795767382
sg12
F0.48155378274966965
sg13
F-0.035865239839980884
sg14
F-0.0339594496849806
sg15
F-0.2888957410123085
sg16
F3.8652206087148073
sg17
F-0.21213968582026413
sg18
F-0.4273735007121174
sg19
F-0.33724741759274174
sg20
F-0.3282339583987865
sg21
F-0.18622486001898897
sg22
F-0.6101307158309838
sg23
F0.17781916469613918
sg24
F-0.6216378710706724
sg25
F-0.3517129634473594
sg26
F0.05943526310434926
sg27
F-0.7109014763206929
sg28
F1.7541204705364872
sg29
F-0.2766694861085051
sg30
F-0.5310939852704955
ssS'THE TRAVEL AGENCY IN THE PARK'
p229
(dp230
g3
F-0.7574179780686766
sg4
F-0.2800859438637654
sg5
F-1.2005179644997563
sg6
F-1.1220120212107116
sg7
I00
sg8
F-0.2256657995411251
sg9
F-0.7510341545353315
sg10
F-0.8879973533896689
sg11
F-0.7742755461867982
sg12
F0.48155378274966965
sg13
F0.06175664536362788
sg14
F-0.0339594496849806
sg15
F-0.8614753592066567
sg16
F-0.05901100165976806
sg17
F-0.27649512737893417
sg18
F0.23047804842965866
sg19
F-0.8984672327075168
sg20
F-0.03616307256388849
sg21
F-0.18622486001898897
sg22
F-0.8109664953734413
sg23
F0.09582903695701411
sg24
F-0.6250449341592068
sg25
F-0.3517129634473594
sg26
F0.08145864675315316
sg27
F-0.7109014763206929
sg28
F-1.2222083969789288
sg29
F-0.7259890823493619
sg30
F-0.5348578514122511
ssS'NOLES JAMES L'
p231
(dp232
g3
F-0.7574179780686766
sg4
F0.9977415257494949
sg5
F-1.2005179644997563
sg6
F-1.095516777003401
sg7
I00
sg8
F-0.07369863487585288
sg9
F-0.7510341545353315
sg10
F-0.7404850513908324
sg11
F-0.7742755461867982
sg12
F0.48155378274966965
sg13
F0.06175664536362788
sg14
F-0.15514704414667027
sg15
F-0.8614753592066567
sg16
F-0.05901100165976806
sg17
F-0.27649512737893417
sg18
F-0.4273735007121174
sg19
F-0.9866689943463741
sg20
F-0.03616307256388849
sg21
F-0.18622486001898897
sg22
F-0.8109664953734413
sg23
F0.09582903695701411
sg24
F-0.5814238078289732
sg25
F-0.3517129634473594
sg26
F0.2038177615939343
sg27
F-0.4372178396518284
sg28
F-1.2222083969789288
sg29
F-0.5451792043605327
sg30
F-0.5348578514122511
ssS'KEAN STEVEN J'
p233
(dp234
g3
F5.483649549624516
sg4
F-0.2800859438637654
sg5
F-0.17849172433775537
sg6
F0.43610432981882596
sg7
I00
sg8
F-8.470390619146047
sg9
F-0.31840655269516976
sg10
F-0.010152149019645425
sg11
F1.0168057860144004
sg12
F0.48155378274966965
sg13
F0.831990873486309
sg14
F-0.0339594496849806
sg15
F2.0006362213005318
sg16
F-0.05901100165976806
sg17
F6.215720238218839
sg18
F-0.4251370350869972
sg19
F-0.15462447203680127
sg20
F0.814914282217015
sg21
F-0.18622486001898897
sg22
F-0.14151389689858268
sg23
F4.3675722705084965
sg24
F0.10298640545656061
sg25
F2.7875387027258838
sg26
F0.05226877488577029
sg27
F1.7299464930945194
sg28
F0.6150051674967395
sg29
F-0.11843228332303023
sg30
F-0.2705784568638582
ssS'FOWLER PEGGY'
p235
(dp236
g3
F-0.5044281778634563
sg4
F-0.2800859438637654
sg5
F-1.2005179644997563
sg6
F-0.9865735038886234
sg7
I00
sg8
F-0.12152968456888229
sg9
F-0.7510341545353315
sg10
F-0.8458062671024553
sg11
F-0.7742755461867982
sg12
F0.48155378274966965
sg13
F0.009303095104972384
sg14
F-0.0339594496849806
sg15
F-0.8536102545611299
sg16
F-0.05901100165976806
sg17
F-0.24191608415338012
sg18
F-0.4273735007121174
sg19
F-0.8984672327075168
sg20
F-0.039953817714496596
sg21
F-0.18622486001898897
sg22
F-0.8109664953734413
sg23
F0.13988343395117087
sg24
F-0.4020622498759582
sg25
F-0.3517129634473594
sg26
F0.08145864675315316
sg27
F-0.3799662956065861
sg28
F-1.2222083969789288
sg29
F-0.8847805924698869
sg30
F-0.3617369997449706
ssS'WASAFF GEORGE'
p237
(dp238
g3
F-0.5616811887416202
sg4
F1.0916280617509402
sg5
F-1.2005179644997563
sg6
F-0.25668555567072854
sg7
I00
sg8
F-0.28674521179162876
sg9
F-0.46261575330855703
sg10
F-0.5343059239962286
sg11
F-0.492819908269467
sg12
F-0.09642534034410398
sg13
F0.09037975263839736
sg14
F-0.0339594496849806
sg15
F-0.5964213326524048
sg16
F-0.05901100165976806
sg17
F-0.2476792580243058
sg18
F-0.4247845782784892
sg19
F-0.8984672327075168
sg20
F-0.2684042955177505
sg21
F-0.18622486001898897
sg22
F-0.5933944008691123
sg23
F0.06019920340638209
sg24
F-0.3817510760452584
sg25
F-0.29493063356825683
sg26
F0.08145864675315316
sg27
F-0.4815815979047608
sg28
F-0.04084978633779232
sg29
F-0.4311629217109707
sg30
F-0.3168181497091748
ssS'WHITE JR THOMAS E'
p239
(dp240
g3
F-0.7574179780686766
sg4
F-0.2800859438637654
sg5
F0.7813403225333346
sg6
F0.8426212602188096
sg7
I00
sg8
F-2.992491785819774
sg9
F-0.7510341545353315
sg10
F0.7428121339658684
sg11
F-0.7742755461867982
sg12
F0.48155378274966965
sg13
F0.06175664536362788
sg14
F-0.0339594496849806
sg15
F-0.8614753592066567
sg16
F-0.05901100165976806
sg17
F-0.27649512737893417
sg18
F1.5446822968832155
sg19
F0.5439526206723302
sg20
F-0.03616307256388849
sg21
F-0.18622486001898897
sg22
F-0.509712826059755
sg23
F0.09582903695701411
sg24
F1.1666413802211153
sg25
F-0.3517129634473594
sg26
F0.024855218010817717
sg27
F7.469622179982948
sg28
F0.2206297901424823
sg29
F-0.03649785329235177
sg30
F-0.3653350090170169
ssS'CHRISTODOULOU DIOMEDES'
p241
(dp242
g3
F-0.7574179780686766
sg4
F-0.2800859438637654
sg5
F-1.2005179644997563
sg6
F-0.6852535087442383
sg7
I00
sg8
F1.153922594477696
sg9
F-0.7510341545353315
sg10
F-0.5197426907451577
sg11
F-0.7742755461867982
sg12
F0.48155378274966965
sg13
F0.06175664536362788
sg14
F-0.0339594496849806
sg15
F-0.8614753592066567
sg16
F-0.05901100165976806
sg17
F-0.27649512737893417
sg18
F-0.4273735007121174
sg19
F-0.8984672327075168
sg20
F-0.03616307256388849
sg21
F-0.18622486001898897
sg22
F-0.8109664953734413
sg23
F0.09582903695701411
sg24
F0.09402366921105401
sg25
F-0.3517129634473594
sg26
F0.08145864675315316
sg27
F-0.1492326894161411
sg28
F-1.2222083969789288
sg29
F-0.8847805924698869
sg30
F0.13525552826803605
ssS'ALLEN PHILLIP K'
p243
(dp244
g3
F0.6626524284991174
sg4
F4.455191015510199
sg5
F-0.8626765729767036
sg6
F-0.44036037132267036
sg7
I00
sg8
F-0.5125469217951304
sg9
F-0.3114773006056965
sg10
F0.434704400545681
sg11
F-0.17298395609068148
sg12
F-2.5712649154094813
sg13
F5.20956909236482
sg14
F-0.19548181703579243
sg15
F0.24514486441895855
sg16
F-0.05901100165976806
sg17
F1.8318659804013753
sg18
F-0.4270973489858637
sg19
F-0.7701401658033861
sg20
F-0.4777653386404049
sg21
F-0.18622486001898897
sg22
F1.9839981032590936
sg23
F2.1101779463543715
sg24
F-0.4204246375689284
sg25
F0.17555152828716467
sg26
F0.1889995287624951
sg27
F-0.6364477068938105
sg28
F-0.3045739787108373
sg29
F1.0818009694029527
sg30
F-0.3088087920790295
ssS'SHARP VICTORIA T'
p245
(dp246
g3
F0.7771584502554455
sg4
F0.02925383991870427
sg5
F1.6335932242525786
sg6
F-0.40165649500554784
sg7
I00
sg8
F-0.17014376406154935
sg9
F-0.1422434774098682
sg10
F-0.49953402037763095
sg11
F-0.4672330320951641
sg12
F0.48155378274966965
sg13
F-0.10086503933980498
sg14
F-0.0339594496849806
sg15
F1.086711061490322
sg16
F-0.05901100165976806
sg17
F-0.14586318630461886
sg18
F-0.42301139350991296
sg19
F1.164232341772235
sg20
F-0.7674303383044921
sg21
F-0.18622486001898897
sg22
F-0.40929493628852615
sg23
F0.2002494751814288
sg24
F-0.5665841894437396
sg25
F-0.3030423949795572
sg26
F0.000514205987636483
sg27
F-0.5850288976240656
sg28
F-0.09469330522307312
sg29
F-0.19342646977419542
sg30
F-0.4981219271098109
ssS'JAEDICKE ROBERT'
p247
(dp248
g3
F-0.7574179780686766
sg4
F-0.2800859438637654
sg5
F-1.2005179644997563
sg6
F-1.090986345707243
sg7
I00
sg8
F-0.2781231307558621
sg9
F-0.7510341545353315
sg10
F-0.9346534036103527
sg11
F-0.7742755461867982
sg12
F0.4567828950329691
sg13
F0.06175664536362788
sg14
F-0.09047119513317303
sg15
F-0.8614753592066567
sg16
F-0.05901100165976806
sg17
F-0.27649512737893417
sg18
F-0.4273735007121174
sg19
F-0.939597148058654
sg20
F-0.03616307256388849
sg21
F5.436319409257459
sg22
F-0.8109664953734413
sg23
F0.09582903695701411
sg24
F-0.5739650158150608
sg25
F-0.3517129634473594
sg26
F0.13851669119956125
sg27
F-0.6848523752920282
sg28
F-1.2222083969789288
sg29
F-0.8480533461799694
sg30
F-0.478428613037955
ssS'WINOKUR JR. HERBERT S'
p249
(dp250
g3
F-0.7574179780686766
sg4
F-0.2800859438637654
sg5
F-1.1660955613975013
sg6
F-1.1220120212107116
sg7
I00
sg8
F-0.2256657995411251
sg9
F-0.7510341545353315
sg10
F-0.9678688337818905
sg11
F-0.7742755461867982
sg12
F0.4567828950329691
sg13
F0.06175664536362788
sg14
F-0.0339594496849806
sg15
F-0.8614753592066567
sg16
F-0.05901100165976806
sg17
F-0.27649512737893417
sg18
F-0.4273735007121174
sg19
F-0.873414201438532
sg20
F-0.03616307256388849
sg21
F5.427478443096113
sg22
F-0.8109664953734413
sg23
F0.09582903695701411
sg24
F-0.6250449341592068
sg25
F-0.3517129634473594
sg26
F0.08047551589365295
sg27
F-0.7109014763206929
sg28
F-1.2222083969789288
sg29
F-0.8475086865991686
sg30
F-0.5348578514122511
ssS'BROWN MICHAEL'
p251
(dp252
g3
F-0.03025580571866215
sg4
F-0.2800859438637654
sg5
F0.00019782042872801682
sg6
F-1.1220120212107116
sg7
I00
sg8
F-0.2256657995411251
sg9
F-0.7510341545353315
sg10
F-0.9781600289141291
sg11
F-0.6079608510538297
sg12
F0.48155378274966965
sg13
F0.010509265715634607
sg14
F-0.0339594496849806
sg15
F-0.2629408956820702
sg16
F-0.05901100165976806
sg17
F-0.23711343926094205
sg18
F-0.4273735007121174
sg19
F-0.02457211226468252
sg20
F-0.3518603568049458
sg21
F-0.18622486001898897
sg22
F-0.8109664953734413
sg23
F0.1356675529081075
sg24
F-0.6250449341592068
sg25
F-0.34360120203605904
sg26
F0.047165261188364775
sg27
F-0.7109014763206929
sg28
F-1.2222083969789288
sg29
F-0.863166114677201
sg30
F-0.5348578514122511
ssS'BADUM JAMES P'
p253
(dp254
g3
F-0.7574179780686766
sg4
F0.015246268402723572
sg5
F-1.1155947534491824
sg6
F-1.1034852196327667
sg7
I00
sg8
F-0.2559062079264608
sg9
F-0.7510341545353315
sg10
F-0.9197250992360985
sg11
F-0.7742755461867982
sg12
F0.48155378274966965
sg13
F0.06175664536362788
sg14
F-0.0339594496849806
sg15
F-0.8614753592066567
sg16
F-0.05901100165976806
sg17
F-0.27649512737893417
sg18
F-0.4273735007121174
sg19
F-0.8366591173475162
sg20
F-0.03616307256388849
sg21
F-0.18622486001898897
sg22
F-0.8109664953734413
sg23
F0.09582903695701411
sg24
F-0.5945428581714066
sg25
F-0.3517129634473594
sg26
F0.07903317316771953
sg27
F-0.7109014763206929
sg28
F-1.2222083969789288
sg29
F-0.8047629957948291
sg30
F-0.5011614600979583
ssS'HUGHES JAMES A'
p255
(dp256
g3
F-0.4055810992532928
sg4
F-0.2800859438637654
sg5
F-1.2005179644997563
sg6
F-1.0416439162216524
sg7
I00
sg8
F-0.1557609100335143
sg9
F-0.7510341545353315
sg10
F-0.9053989124168634
sg11
F-0.3265052131364985
sg12
F0.48155378274966965
sg13
F0.06043097893771074
sg14
F-0.0339594496849806
sg15
F-0.3982206955851305
sg16
F-0.05901100165976806
sg17
F-0.24383714211035534
sg18
F-0.4273735007121174
sg19
F-0.8984672327075168
sg20
F-0.3704330300990419
sg21
F-0.18622486001898897
sg22
F-0.8109664953734413
sg23
F0.08576323099023647
sg24
F-0.49272883874152784
sg25
F-0.3111541563908576
sg26
F0.08145864675315316
sg27
F-0.4961968137065465
sg28
F-1.2222083969789288
sg29
F-0.8847805924698869
sg30
F-0.43618464613491736
ssS'REYNOLDS LAWRENCE'
p257
(dp258
g3
F-0.7574179780686766
sg4
F-0.19532932813537002
sg5
F-0.9956644700292234
sg6
F-0.607775656109537
sg7
I00
sg8
F-2.4197219318034593
sg9
F-0.5257072785769139
sg10
F-0.5503650211872398
sg11
F-0.7742755461867982
sg12
F0.28338668101606534
sg13
F0.06175664536362788
sg14
F-0.21372865258669427
sg15
F-0.8614753592066567
sg16
F-0.05901100165976806
sg17
F-0.27649512737893417
sg18
F-0.06028791786338628
sg19
F-0.8802105892312574
sg20
F-0.03616307256388849
sg21
F-0.18622486001898897
sg22
F-0.7440212355259556
sg23
F0.09582903695701411
sg24
F-0.12555715758043412
sg25
F-0.3517129634473594
sg26
F0.22614297896359875
sg27
F-0.5918700876068732
sg28
F-0.8750699160239441
sg29
F-0.7117897807658247
sg30
F0.008937289491649746
ssS'DIMICHELE RICHARD G'
p259
(dp260
g3
F-0.7574179780686766
sg4
F-0.2800859438637654
sg5
F-0.32809397306454124
sg6
F0.20096267507341617
sg7
I00
sg8
F1.2813706096767785
sg9
F0.25102078103086334
sg10
F0.3370219992367108
sg11
F-0.7742755461867982
sg12
F0.48155378274966965
sg13
F0.06175664536362788
sg14
F-0.0339594496849806
sg15
F-0.8614753592066567
sg16
F-0.05901100165976806
sg17
F-0.27649512737893417
sg18
F0.2533568555922409
sg19
F-0.2635067544308819
sg20
F-0.03616307256388849
sg21
F-0.18622486001898897
sg22
F-0.14151389689858268
sg23
F0.09582903695701411
sg24
F0.35902368278209673
sg25
F-0.3517129634473594
sg26
F0.0565415325702648
sg27
F-0.6364477068938105
sg28
F-0.028163617162458653
sg29
F0.15373481085804708
sg30
F0.5357952941553962
ssS'BHATNAGAR SANJAY'
p261
(dp262
g3
F-0.5014921260235504
sg4
F-0.2800859438637654
sg5
F-1.2005179644997563
sg6
F-1.1220120212107116
sg7
I00
sg8
F-1.514811064635349
sg9
F-0.7510341545353315
sg10
F3.4626999303283066
sg11
F-0.7742755461867982
sg12
F0.48155378274966965
sg13
F0.02840655817317631
sg14
F19.775577802337835
sg15
F-0.49732101411876767
sg16
F-0.05901100165976806
sg17
F-0.2486397870027934
sg18
F-0.176903885000036
sg19
F13.51914779331996
sg20
F-0.21167457303704246
sg21
F6.941558525172075
sg22
F-0.8109664953734413
sg23
F0.12098275391005524
sg24
F-0.6250449341592068
sg25
F-0.34360120203605904
sg26
F-19.919577386099515
sg27
F-2.2495725383520124
sg28
F-1.2222083969789288
sg29
F5.893332476884016
sg30
F-0.19445394393461268
ssS'CARTER REBECCA C'
p263
(dp264
g3
F-0.6047432823935727
sg4
F-0.2800859438637654
sg5
F-1.2005179644997563
sg6
F-0.39945735822105044
sg7
I00
sg8
F-0.2256657995411251
sg9
F-0.6428772540752911
sg10
F-0.8547172816564342
sg11
F-0.40326584165940704
sg12
F0.32322619514858913
sg13
F0.11644321681301241
sg14
F-0.4278114417920039
sg15
F-0.7073193081543322
sg16
F-0.05901100165976806
sg17
F-0.26208719270161995
sg18
F-0.42639243536884774
sg19
F-1.1851173612385724
sg20
F-0.2738140034349335
sg21
F-0.18622486001898897
sg22
F-0.6101307158309838
sg23
F0.04184320465881681
sg24
F-0.6250449341592068
sg25
F-0.29493063356825683
sg26
F0.47911800575402963
sg27
F-0.5293553171750305
sg28
F-0.032611955136187754
sg29
F-0.6753554753776584
sg30
F-0.5348578514122511
ssS'BUCHANAN HAROLD G'
p265
(dp266
g3
F-0.22501391109908325
sg4
F-0.2800859438637654
sg5
F-1.1859012328215164
sg6
F-0.3646186546173059
sg7
I00
sg8
F-0.24994727483083395
sg9
F-0.3114773006056965
sg10
F-0.6094925988266853
sg11
F-0.7742755461867982
sg12
F0.48155378274966965
sg13
F-0.12037373747892577
sg14
F-0.0339594496849806
sg15
F-0.8433856185219452
sg16
F-0.05901100165976806
sg17
F-0.1564290050679826
sg18
F-0.4251661036897607
sg19
F-0.8878290028693068
sg20
F-0.04488178641028708
sg21
F-0.18622486001898897
sg22
F-0.47624019613601204
sg23
F0.24879569318672506
sg24
F-0.5050198442698544
sg25
F-0.3517129634473594
sg26
F0.08104118142003205
sg27
F-0.5992205267922007
sg28
F-0.09527944985903947
sg29
F-0.42228611073305417
sg30
F-0.4269706369932587
ssS'YEAP SOON'
p267
(dp268
g3
F-0.7574179780686766
sg4
F-0.2800859438637654
sg5
F0.14171214429355447
sg6
F-1.1081603775310416
sg7
I00
sg8
F-0.247986207927133
sg9
F-0.7510341545353315
sg10
F-0.9614965601151785
sg11
F-0.7742755461867982
sg12
F0.48155378274966965
sg13
F0.06175664536362788
sg14
F-0.0339594496849806
sg15
F-0.8614753592066567
sg16
F-0.05901100165976806
sg17
F-0.27649512737893417
sg18
F-0.4273735007121174
sg19
F0.07842368295225517
sg20
F-0.03616307256388849
sg21
F-0.18622486001898897
sg22
F-0.8109664953734413
sg23
F0.09582903695701411
sg24
F-0.6022399245467438
sg25
F-0.3517129634473594
sg26
F0.043123500988197276
sg27
F-0.7109014763206929
sg28
F-1.2222083969789288
sg29
F-0.8606186690211038
sg30
F-0.5096645980699174
ssS'MURRAY JULIA H'
p269
(dp270
g3
F0.3152196274435924
sg4
F-0.2800859438637654
sg5
F0.20220105222200413
sg6
F-0.4462879012086292
sg7
I00
sg8
F-0.19089129940447863
sg9
F-0.5707726537685974
sg10
F-0.7118033776565571
sg11
F-0.6335477272281326
sg12
F0.48155378274966965
sg13
F0.0133012664761403
sg14
F-0.0339594496849806
sg15
F-0.5508037257083497
sg16
F-0.05901100165976806
sg17
F-0.2332713233469916
sg18
F-0.42677396078011925
sg19
F0.1224482240993814
sg20
F-0.2341479557428863
sg21
F-0.18622486001898897
sg22
F-0.5431854559834979
sg23
F0.13022793861520643
sg24
F-0.5543599102013334
sg25
F-0.33548944062475866
sg26
F0.0413958902846311
sg27
F-0.5945285811235084
sg28
F-0.1803976472664627
sg29
F-0.5286056781631016
sg30
F-0.48251582819126354
ssS'GARLAND C KEVIN'
p271
(dp272
g3
F-0.6551455056452896
sg4
F-0.2800859438637654
sg5
F-0.021313136357748442
sg6
F-0.41747707889534147
sg7
I00
sg8
F-0.19114849026881064
sg9
F-0.20981125626526465
sg10
F-0.47116714645232854
sg11
F-0.646341165315284
sg12
F0.48155378274966965
sg13
F0.5840966494789012
sg14
F-0.0339594496849806
sg15
F-0.7214764965162803
sg16
F-0.05901100165976806
sg17
F-0.23423185232547922
sg18
F-0.3168873751832301
sg19
F-0.04022804050991508
sg20
F-0.16109415250625614
sg21
F-0.18622486001898897
sg22
F-0.2419317866698115
sg23
F-0.12935947694092645
sg24
F-0.5190219531195739
sg25
F-0.1326954053422494
sg26
F0.047779631003608
sg27
F-0.5573545708922313
sg28
F-0.16830216648396334
sg29
F-0.19783023105471306
sg30
F-0.4517012163255287
ssS'DODSON KEITH'
p273
(dp274
g3
F-0.6712937907647718
sg4
F-0.2800859438637654
sg5
F-0.5144085795231731
sg6
F-0.512075967886708
sg7
I00
sg8
F-0.2256657995411251
sg9
F-0.7510341545353315
sg10
F-0.9001479620273433
sg11
F-0.646341165315284
sg12
F0.48155378274966965
sg13
F0.07101890786859119
sg14
F-0.0339594496849806
sg15
F-0.7718131662476516
sg16
F-0.05901100165976806
sg17
F-0.2630477216801076
sg18
F-0.4259673070534309
sg19
F-0.3991087241019335
sg20
F-0.1408420164794991
sg21
F-0.18622486001898897
sg22
F-0.7641048134802013
sg23
F0.08195766057798629
sg24
F-0.6250449341592068
sg25
F-0.3273776792134583
sg26
F0.061862824016448485
sg27
F-0.7109014763206929
sg28
F-0.21802449789000788
sg29
F-0.7444754950938571
sg30
F-0.5348578514122511
ssS'YEAGER F SCOTT'
p275
(dp276
g3
F-0.7574179780686766
sg4
F-0.2800859438637654
sg5
F0.11369674191026123
sg6
F0.16919918742275725
sg7
I01
sg8
F-0.5810971057199206
sg9
F-0.7510341545353315
sg10
F0.03565861707456932
sg11
F-0.7742755461867982
sg12
F0.48155378274966965
sg13
F0.06175664536362788
sg14
F-0.0339594496849806
sg15
F-0.8614753592066567
sg16
F-0.05901100165976806
sg17
F-0.27649512737893417
sg18
F-0.15857976453296663
sg19
F0.0580337424290191
sg20
F-0.03616307256388849
sg21
F-0.18622486001898897
sg22
F-0.8109664953734413
sg23
F0.09582903695701411
sg24
F0.7810291091064249
sg25
F-0.3517129634473594
sg26
F0.043923642876679395
sg27
F1.4018364048240903
sg28
F-0.5024636778240651
sg29
F-0.7267766899235313
sg30
F0.5510605304134221
ssS'HIRKO JOSEPH'
p277
(dp278
g3
F-0.7574179780686766
sg4
F-0.2631577219080055
sg5
F0.699121206843235
sg6
F1.0888459247833828
sg7
I01
sg8
F0.4859807756987591
sg9
F-0.7510341545353315
sg10
F1.4262973045017953
sg11
F-0.7742755461867982
sg12
F0.48155378274966965
sg13
F0.06175664536362788
sg14
F-0.0339594496849806
sg15
F-0.8614753592066567
sg16
F-0.05901100165976806
sg17
F-0.27649512737893417
sg18
F-0.4221847551188247
sg19
F0.4841125778323983
sg20
F-0.03616307256388849
sg21
F-0.18622486001898897
sg22
F-0.8109664953734413
sg23
F0.09582903695701411
sg24
F3.0148578727678834
sg25
F-0.3517129634473594
sg26
F0.02720346050962393
sg27
F-0.7109014763206929
sg28
F-1.2222083969789288
sg29
F-0.8448331889321262
sg30
F3.486232036937138
ssS'DIETRICH JANET R'
p279
(dp280
g3
F0.5011695773042959
sg4
F-0.2800859438637654
sg5
F-1.1158627268632832
sg6
F-0.29774681843907824
sg7
I00
sg8
F-0.30625430267006154
sg9
F0.05136891114965325
sg10
F-0.44078795843356594
sg11
F3.1277230703943846
sg12
F0.48155378274966965
sg13
F0.1261966572736444
sg14
F-0.0339594496849806
sg15
F0.6344675443725332
sg16
F-0.05901100165976806
sg17
F-0.21598180173421458
sg18
F-0.4265141601429201
sg19
F-0.8368541515612166
sg20
F0.7839025710073501
sg21
F-0.18622486001898897
sg22
F-0.40929493628852615
sg23
F0.02824056960526313
sg24
F-0.40438832347077985
sg25
F-0.23814830368915424
sg26
F0.07904082669882675
sg27
F-0.5247667573653183
sg28
F-0.08581480430308673
sg29
F-0.26624377203929317
sg30
F-0.3322721151396673
ssS'DERRICK JR. JAMES V'
p281
(dp282
g3
F0.30983686573709834
sg4
F-0.2800859438637654
sg5
F0.04492501936414226
sg6
F0.8715349138342158
sg7
I00
sg8
F1.241299617920329
sg9
F-0.05306162356653726
sg10
F-0.14677320806037675
sg11
F0.04450449139089262
sg12
F-0.7906790103800699
sg13
F-2.0376047787046256
sg14
F-2.324753080855238
sg15
F0.24042580163164248
sg16
F-0.05901100165976806
sg17
F0.5966257140663056
sg18
F-0.41378029534481486
sg19
F-1.659285772198272
sg20
F-0.4447078840263914
sg21
F-0.18622486001898897
sg22
F-0.2754044165935544
sg23
F1.0015116152144363
sg24
F0.4198500163042604
sg25
F-0.189477735221352
sg26
F-0.040665504187111776
sg27
F0.34504033296002595
sg28
F1.015023890880998
sg29
F-0.6431565341049311
sg30
F0.6194632232329008
ssS'FREVERT MARK A'
p283
(dp284
g3
F0.8451769845465975
sg4
F10.324993813173904
sg5
F0.9185914329920077
sg6
F2.856759888817113
sg7
I00
sg8
F-0.47563279868878433
sg9
F1.5808444823952077
sg10
F5.117481207297278
sg11
F2.3217364709038453
sg12
F-2.854600274126154
sg13
F0.09360612484388502
sg14
F-0.0339594496849806
sg15
F1.4815393146957654
sg16
F19.56214705021311
sg17
F-0.2563240188306943
sg18
F13.067036769735465
sg19
F0.6438455988531232
sg20
F1.689799080061283
sg21
F-0.18622486001898897
sg22
F0.527938701576276
sg23
F0.05952015145009475
sg24
F1.1048914081986325
sg25
F-0.3030423949795572
sg26
F0.02093521853281054
sg27
F1.7636638709778338
sg28
F3.598408664455563
sg29
F6.681045299281645
sg30
F0.8287911915628706
ssS'PAI LOU L'
p285
(dp286
g3
F-0.7574179780686766
sg4
F-0.2800859438637654
sg5
F-0.41981396434549695
sg6
F1.3122989290685496
sg7
I00
sg8
F-0.6609198004355222
sg9
F-0.7510341545353315
sg10
F1.7600182997120382
sg11
F-0.7742755461867982
sg12
F0.48155378274966965
sg13
F0.06175664536362788
sg14
F-0.0339594496849806
sg15
F-0.8614753592066567
sg16
F-0.05901100165976806
sg17
F-0.27649512737893417
sg18
F2.8963614246619995
sg19
F-0.33026164666565044
sg20
F-0.03616307256388849
sg21
F-0.18622486001898897
sg22
F-0.14151389689858268
sg23
F0.09582903695701411
sg24
F2.192830965149621
sg25
F-0.3517129634473594
sg26
F0.05916112753559973
sg27
F4.283381662939228
sg28
F-0.032293892155430826
sg29
F0.4849299352762798
sg30
F1.4732214585251973
ssS'BAY FRANKLIN R'
p287
(dp288
g3
F-0.7574179780686766
sg4
F0.14968694330725027
sg5
F1.9455386394856828
sg6
F-0.45602680642852794
sg7
I00
sg8
F-0.2012145830031788
sg9
F-0.7510341545353315
sg10
F-0.7488944028188049
sg11
F-0.7742755461867982
sg12
F0.2817607199463411
sg13
F0.06175664536362788
sg14
F-0.14005690986442554
sg15
F-0.8614753592066567
sg16
F-0.05901100165976806
sg17
F-0.27649512737893417
sg18
F-0.4272481423626996
sg19
F1.3140509131048699
sg20
F-0.03616307256388849
sg21
F-0.18622486001898897
sg22
F-0.5431854559834979
sg23
F0.09582903695701411
sg24
F-0.6175898097248396
sg25
F-0.3517129634473594
sg26
F-0.1819970490720857
sg27
F-0.624768649487064
sg28
F-0.1332016446790018
sg29
F-0.5218075196916234
sg30
F-0.5348578514122511
ssS'HAYSLETT RODERICK J'
p289
(dp290
g3
F0.5388489092497543
sg4
F-0.2800859438637654
sg5
F-1.2005179644997563
sg6
F-1.0971007212754276
sg7
I00
sg8
F-0.08342155333940857
sg9
F-0.7510341545353315
sg10
F-0.9654096799748499
sg11
F-0.3265052131364985
sg12
F0.48155378274966965
sg13
F-9.472954604692228
sg14
F-0.0339594496849806
sg15
F-0.41237788394707864
sg16
F-0.05901100165976806
sg17
F0.7426261187964227
sg18
F-0.4273735007121174
sg19
F-0.8984672327075168
sg20
F-0.3675556868754393
sg21
F-0.18622486001898897
sg22
F-0.8109664953734413
sg23
F1.0014972179292323
sg24
F-0.5840315751946747
sg25
F-0.04346602981794535
sg26
F0.08145864675315316
sg27
F-0.5061011789968548
sg28
F-1.2222083969789288
sg29
F-0.8847805924698869
sg30
F-0.5348578514122511
ssS'FUGH JOHN L'
p291
(dp292
g3
F-0.7574179780686766
sg4
F-0.1966064939209006
sg5
F-1.2005179644997563
sg6
F-1.109337448902777
sg7
I00
sg8
F-0.24602397716618868
sg9
F-0.7510341545353315
sg10
F-0.9640690829572623
sg11
F-0.7742755461867982
sg12
F0.48155378274966965
sg13
F0.06175664536362788
sg14
F-0.0339594496849806
sg15
F-0.8614753592066567
sg16
F-0.05901100165976806
sg17
F-0.27649512737893417
sg18
F-0.4273735007121174
sg19
F-0.8984672327075168
sg20
F-0.03616307256388849
sg21
F-0.18622486001898897
sg22
F-0.8109664953734413
sg23
F0.09582903695701411
sg24
F-0.6041778262548552
sg25
F-0.3517129634473594
sg26
F0.08145864675315316
sg27
F-0.7109014763206929
sg28
F-1.2222083969789288
sg29
F-0.8625947045050725
sg30
F-0.5118054456080088
ssS'FALLON JAMES B'
p293
(dp294
g3
F0.10137718510378327
sg4
F-0.2800859438637654
sg5
F1.136307651339392
sg6
F-0.11378671313481703
sg7
I00
sg8
F0.5421520665557725
sg9
F-0.21119133831513476
sg10
F0.2486589198861118
sg11
F-0.2369511465264386
sg12
F0.48155378274966965
sg13
F1.7572189323258731
sg14
F-0.0339594496849806
sg15
F0.40008742593583574
sg16
F-0.05901100165976806
sg17
F-0.20445545399236323
sg18
F0.30203223091979625
sg19
F0.802302032293263
sg20
F-0.510380141971675
sg21
F-0.18622486001898897
sg22
F0.8626650008137053
sg23
F-0.19476921911847622
sg24
F-0.34910109984312593
sg25
F-0.05157779122924571
sg26
F0.014717072395971677
sg27
F0.1115430750649545
sg28
F0.16176541991810992
sg29
F0.7274205373865357
sg30
F-0.4119673212765232
ssS'KOENIG MARK E'
p295
(dp296
g3
F0.404279866587403
sg4
F-0.2800859438637654
sg5
F1.8937710481252497
sg6
F-0.12863056936598866
sg7
I01
sg8
F0.40845028264424693
sg9
F-0.31840655269516976
sg10
F-0.3855081159702532
sg11
F-0.09622332756777298
sg12
F0.48155378274966965
sg13
F0.1477144598095673
sg14
F-0.0339594496849806
sg15
F0.9246899057924707
sg16
F-0.05901100165976806
sg17
F-0.2179028596911898
sg18
F-0.15402326104978104
sg19
F1.3535928328923752
sg20
F-0.5067545551353354
sg21
F-0.18622486001898897
sg22
F-0.3423496764410403
sg23
F0.015458555813335939
sg24
F-0.39788511339193555
sg25
F-0.23003654227785386
sg26
F-0.006916676941919186
sg27
F0.026575259167948773
sg28
F0.18611086921661915
sg29
F-0.18864206073511483
sg30
F-0.4470625826274577
ssS'SAVAGE FRANK'
p297
(dp298
g3
F-0.7574179780686766
sg4
F-0.2800859438637654
sg5
F-1.2005179644997563
sg6
F-1.1220120212107116
sg7
I00
sg8
F-0.2256657995411251
sg9
F-0.7510341545353315
sg10
F-0.9912857415494608
sg11
F-0.7742755461867982
sg12
F0.36138128891637733
sg13
F0.06175664536362788
sg14
F-0.0339594496849806
sg15
F-0.8614753592066567
sg16
F-0.05901100165976806
sg17
F-0.27649512737893417
sg18
F-0.4273735007121174
sg19
F-0.8984672327075168
sg20
F-0.03616307256388849
sg21
F6.2782275552887015
sg22
F-0.8109664953734413
sg23
F0.09582903695701411
sg24
F-0.6250449341592068
sg25
F-0.3517129634473594
sg26
F0.08145864675315316
sg27
F-0.7109014763206929
sg28
F-1.2222083969789288
sg29
F-0.8831360889046668
sg30
F-0.5348578514122511
ssS'IZZO LAWRENCE L'
p299
(dp300
g3
F-0.5147043593031267
sg4
F-0.2800859438637654
sg5
F-0.5161382261050982
sg6
F-0.4684428286885768
sg7
I00
sg8
F-11.638703511668778
sg9
F-0.30038040261849636
sg10
F0.030794068524945494
sg11
F-0.41605927974655843
sg12
F0.48155378274966965
sg13
F0.08513549868819364
sg14
F-0.0339594496849806
sg15
F-0.5177702861971373
sg16
F-0.05901100165976806
sg17
F-0.2582450767876695
sg18
F2.395422193237837
sg19
F-0.40036758129945516
sg20
F-0.31727209920887706
sg21
F-0.18622486001898897
sg22
F-0.8109664953734413
sg23
F0.0674072322426712
sg24
F0.06351118202970604
sg25
F-0.3111541563908576
sg26
F0.06191222408086782
sg27
F1.448272606467324
sg28
F-0.834744073820833
sg29
F-0.0166598778843876
sg30
F-0.25187231137901106
ssS'TILNEY ELIZABETH A'
p301
(dp302
g3
F-0.5323206703425618
sg4
F-0.2800859438637654
sg5
F-1.2005179644997563
sg6
F-0.35545938393256554
sg7
I00
sg8
F-0.02644394978553964
sg9
F-0.3544588528485166
sg10
F-0.7864185910730896
sg11
F-0.646341165315284
sg12
F-0.08817663473444269
sg13
F0.16724076246987762
sg14
F-0.0339594496849806
sg15
F-0.5633878931411924
sg16
F-0.05901100165976806
sg17
F-0.2582450767876695
sg18
F-0.15112185113644475
sg19
F-0.8984672327075168
sg20
F-0.22469851721528994
sg21
F-0.18622486001898897
sg22
F-0.6101307158309838
sg23
F0.005399948489160357
sg24
F-0.48685503263625823
sg25
F-0.2624835879230554
sg26
F0.08145864675315316
sg27
F-0.3701464113324731
sg28
F-0.09836466077238172
sg29
F-0.7096330691568239
sg30
F-0.457582142810508
ssS'MARTIN AMANDA K'
p303
(dp304
g3
F-0.012639494679227077
sg4
F-0.13911918280707666
sg5
F-1.0004879914830427
sg6
F-0.008706096442159797
sg7
I00
sg8
F-0.6054925792725462
sg9
F6.669155084954104
sg10
F1.5918316189044932
sg11
F-0.6719280414895868
sg12
F0.48155378274966965
sg13
F-0.2733632590666708
sg14
F-0.0339594496849806
sg15
F-0.4863098676150302
sg16
F-0.05901100165976806
sg17
F-0.05557346232678327
sg18
F4.693158982620576
sg19
F-0.7528830573716113
sg20
F-0.247964003654588
sg21
F-0.18622486001898897
sg22
F-0.8109664953734413
sg23
F0.3772876844196823
sg24
F-0.3801090651901376
sg25
F-0.3517129634473594
sg26
F0.07574563366939084
sg27
F-0.7109014763206929
sg28
F0.3657755595324747
sg29
F2.8019841501602896
sg30
F-0.26427119065548116
ssS'BUY RICHARD B'
p305
(dp306
g3
F0.9665337939293726
sg4
F0.7917828670252444
sg5
F-1.2005179644997563
sg6
F0.03776731411172592
sg7
I00
sg8
F-0.047538080576187414
sg9
F0.3591776814909038
sg10
F-0.04552109152125102
sg11
F1.221500795408823
sg12
F-0.20694016047440908
sg13
F1.3910749353891452
sg14
F-0.0339594496849806
sg15
F0.9734535545947366
sg16
F-0.05901100165976806
sg17
F0.7349418869685218
sg18
F0.30038077092529236
sg19
F-0.8984672327075168
sg20
F0.2888050701284303
sg21
F-0.18622486001898897
sg22
F-0.20845915674606855
sg23
F0.650667291286221
sg24
F-0.21753307234366367
sg25
F0.22422209675496688
sg26
F0.08145864675315316
sg27
F-0.17822385660321532
sg28
F0.2797122606965166
sg29
F0.1482754975558001
sg30
F-0.20251505831842612
ssS'GRAMM WENDY L'
p307
(dp308
g3
F-0.7574179780686766
sg4
F-0.2800859438637654
sg5
F-1.2005179644997563
sg6
F-1.1220120212107116
sg7
I00
sg8
F-0.2256657995411251
sg9
F-0.7510341545353315
sg10
F-0.9579823226616857
sg11
F-0.7742755461867982
sg12
F0.48155378274966965
sg13
F0.06175664536362788
sg14
F-0.0339594496849806
sg15
F-0.8614753592066567
sg16
F-0.05901100165976806
sg17
F-0.27649512737893417
sg18
F-0.4273735007121174
sg19
F-0.8984672327075168
sg20
F-0.03616307256388849
sg21
F5.981357217870905
sg22
F-0.8109664953734413
sg23
F0.09582903695701411
sg24
F-0.6250449341592068
sg25
F-0.3517129634473594
sg26
F0.08145864675315316
sg27
F-0.7109014763206929
sg28
F-1.2222083969789288
sg29
F-0.8324669606559545
sg30
F-0.5348578514122511
ssS'CAUSEY RICHARD A'
p309
(dp310
g3
F0.16841703544830008
sg4
F-0.2800859438637654
sg5
F-0.4532619186692027
sg6
F0.20364802141211202
sg7
I01
sg8
F1.5966704202626991
sg9
F-0.24630195238847616
sg10
F-0.2591588607338701
sg11
F-0.03225613713201589
sg12
F0.2487074382126846
sg13
F0.12354123354837543
sg14
F-0.0339594496849806
sg15
F0.38514372710933487
sg16
F-0.05901100165976806
sg17
F-0.22942920743304115
sg18
F0.13200633978047888
sg19
F-0.3546054626120879
sg20
F-0.4591016328337678
sg21
F-0.18622486001898897
sg22
F-0.14151389689858268
sg23
F0.03177739869203914
sg24
F-0.3290283186828684
sg25
F-0.254371826511755
sg26
F0.06011642737289186
sg27
F0.7672581378376524
sg28
F0.664309473270932
sg29
F-0.06526614086088764
sg30
F-0.5348578514122511
ssS'TAYLOR MITCHELL S'
p311
(dp312
g3
F-0.496598706290374
sg4
F0.09522423798784177
sg5
F-1.2005179644997563
sg6
F-0.1209398601978119
sg7
I00
sg8
F-0.7023266551849048
sg9
F-0.7510341545353315
sg10
F-0.38620168055627274
sg11
F-0.7742755461867982
sg12
F0.48155378274966965
sg13
F0.01950239654415542
sg14
F-0.0339594496849806
sg15
F-0.6255222198408539
sg16
F-0.05901100165976806
sg17
F-0.2486397870027934
sg18
F-0.4273735007121174
sg19
F-0.8984672327075168
sg20
F-0.1498854270821308
sg21
F-0.18622486001898897
sg22
F-0.40929493628852615
sg23
F0.13131730120230706
sg24
F-0.1819719844547309
sg25
F-0.3517129634473594
sg26
F0.08145864675315316
sg27
F-0.3778229590558412
sg28
F-0.017140463000796944
sg29
F-0.40561040604743737
sg30
F-0.1190720620011813
ssS'DONAHUE JR JEFFREY M'
p313
(dp314
g3
F-0.33413717114891717
sg4
F-0.2800859438637654
sg5
F1.1446879108349162
sg6
F-0.27543378744303115
sg7
I00
sg8
F-0.18123058230809339
sg9
F-0.7510341545353315
sg10
F-0.6558816736971983
sg11
F1.6308908141976686
sg12
F0.1843031301492632
sg13
F0.16138369989097381
sg14
F-0.0339594496849806
sg15
F-0.2542892805719908
sg16
F-0.05901100165976806
sg17
F-0.2553634898522067
sg18
F-0.4257547428957225
sg19
F0.8084012840671702
sg20
F-0.7095216042895719
sg21
F-0.18622486001898897
sg22
F-0.2754044165935544
sg23
F0.009071148238673384
sg24
F-0.49715430585347026
sg25
F-0.2624835879230554
sg26
F0.014477725604982243
sg27
F-0.5247667573653183
sg28
F0.04368681019053251
sg29
F-0.5007298078626252
sg30
F-0.43475297068117785
ssS'GLISAN JR BEN F'
p315
(dp316
g3
F-0.33022243536237605
sg4
F-0.2800859438637654
sg5
F1.8684597411024308
sg6
F-0.3071745852324008
sg7
I01
sg8
F-0.09892272799818115
sg9
F-0.6486124539836855
sg10
F-0.5651072614675071
sg11
F-0.10901676565492441
sg12
F0.48155378274966965
sg13
F0.10206139285187155
sg14
F-0.0339594496849806
sg15
F-0.1740652131876178
sg16
F-0.05901100165976806
sg17
F-0.26112666372313237
sg18
F-0.06345639556461263
sg19
F1.335170964889208
sg20
F-0.43955625069209725
sg21
F-0.18622486001898897
sg22
F-0.40929493628852615
sg23
F0.053401485200906276
sg24
F-0.5329359217511893
sg25
F-0.3030423949795572
sg26
F-0.006193766140064477
sg27
F-0.47824312082420417
sg28
F0.027211147787323385
sg29
F-0.32684043941052665
sg30
F-0.4845743354394284
ss.