(lp0
S'poi'
p1
aS'bonus'
p2
aS'deferral_payments'
p3
aS'deferred_income'
p4
aS'director_fees'
p5
aS'exercised_stock_options'
p6
aS'expenses'
p7
aS'from_messages'
p8
aS'from_poi_to_this_person'
p9
aS'from_this_person_to_poi'
p10
aS'loan_advances'
p11
aS'long_term_incentive'
p12
aS'other'
p13
aS'restricted_stock'
p14
aS'restricted_stock_deferred'
p15
aS'salary'
p16
aS'shared_receipt_with_poi'
p17
aS'to_messages'
p18
aS'total_payments'
p19
aS'total_stock_value'
p20
aS'total_payments_total_stock_value_plus'
p21
aS'expenses_restricted_stock_deferred_plus'
p22
aS'exercised_stock_options_total_stock_value_divide'
p23
aS'from_messages_from_this_person_to_poi_minus'
p24
aS'from_messages_from_this_person_to_poi_divide'
p25
aS'salary_total_stock_value_plus'
p26
aS'expenses_restricted_stock_deferred_times'
p27
aS'from_poi_to_this_person_shared_receipt_with_poi_times'
p28
a.